
C:/WORK_MODUS/BLE_Mesh_SwitchSmart_mainapp/Debug/BLE_Mesh_SwitchSmart_mainapp.elf:     file format elf32-littlearm


Disassembly of section .app_xip_area_ds2:

0053e000 <ds2_xip_begin>:
  53e000:	4d435242 	.word	0x4d435242
  53e004:	44676663 	.word	0x44676663
  53e008:	00000000 	.word	0x00000000
  53e00c:	0000000a 	.word	0x0000000a
  53e010:	ad040106 	.word	0xad040106
  53e014:	fe0053e1 	.word	0xfe0053e1
  53e018:	0000      	.short	0x0000
  53e01a:	2121      	.short	0x2121
  53e01c:	20212121 	.word	0x20212121
  53e020:	20646162 	.word	0x20646162
  53e024:	72756f73 	.word	0x72756f73
  53e028:	66206563 	.word	0x66206563
  53e02c:	6873616c 	.word	0x6873616c
  53e030:	61657220 	.word	0x61657220
  53e034:	43000a64 	.word	0x43000a64
  53e038:	5f544259 	.word	0x5f544259
  53e03c:	00333132 	.word	0x00333132
  53e040:	54425943 	.word	0x54425943
  53e044:	3331325f 	.word	0x3331325f
  53e048:	5f333430 	.word	0x5f333430
  53e04c:	4853454d 	.word	0x4853454d
  53e050:	21212100 	.word	0x21212100
  53e054:	77202121 	.word	0x77202121
  53e058:	64656369 	.word	0x64656369
  53e05c:	7269665f 	.word	0x7269665f
  53e060:	7261776d 	.word	0x7261776d
  53e064:	70755f65 	.word	0x70755f65
  53e068:	65746164 	.word	0x65746164
  53e06c:	706f635f 	.word	0x706f635f
  53e070:	6c665f79 	.word	0x6c665f79
  53e074:	0a687361 	.word	0x0a687361
  53e078:	21212100 	.word	0x21212100
  53e07c:	72202121 	.word	0x72202121
  53e080:	20646165 	.word	0x20646165
  53e084:	616c6665 	.word	0x616c6665
  53e088:	000a6873 	.word	0x000a6873
  53e08c:	21212121 	.word	0x21212121
  53e090:	61622021 	.word	0x61622021
  53e094:	66652064 	.word	0x66652064
  53e098:	6873616c 	.word	0x6873616c
  53e09c:	61657220 	.word	0x61657220
  53e0a0:	21000a64 	.word	0x21000a64
  53e0a4:	21212121 	.word	0x21212121
  53e0a8:	64616220 	.word	0x64616220
  53e0ac:	64707520 	.word	0x64707520
  53e0b0:	20657461 	.word	0x20657461
  53e0b4:	676e656c 	.word	0x676e656c
  53e0b8:	72206874 	.word	0x72206874
  53e0bc:	20646165 	.word	0x20646165
  53e0c0:	6d6f7266 	.word	0x6d6f7266
  53e0c4:	6c666520 	.word	0x6c666520
  53e0c8:	0a687361 	.word	0x0a687361
  53e0cc:	21212100 	.word	0x21212100
  53e0d0:	67202121 	.word	0x67202121
  53e0d4:	6c20746f 	.word	0x6c20746f
  53e0d8:	000a6e65 	.word	0x000a6e65
  53e0dc:	21212121 	.word	0x21212121
  53e0e0:	61622021 	.word	0x61622021
  53e0e4:	6f732064 	.word	0x6f732064
  53e0e8:	65637275 	.word	0x65637275
  53e0ec:	616c6620 	.word	0x616c6620
  53e0f0:	72206873 	.word	0x72206873
  53e0f4:	2c646165 	.word	0x2c646165
  53e0f8:	74733120 	.word	0x74733120
  53e0fc:	6f6c6220 	.word	0x6f6c6220
  53e100:	000a6b63 	.word	0x000a6b63
  53e104:	21212121 	.word	0x21212121
  53e108:	61622021 	.word	0x61622021
  53e10c:	72652064 	.word	0x72652064
  53e110:	0a657361 	.word	0x0a657361
  53e114:	21212100 	.word	0x21212100
  53e118:	62202121 	.word	0x62202121
  53e11c:	77206461 	.word	0x77206461
  53e120:	65746972 	.word	0x65746972
  53e124:	2121000a 	.word	0x2121000a
  53e128:	20212121 	.word	0x20212121
  53e12c:	6c696166 	.word	0x6c696166
  53e130:	74206465 	.word	0x74206465
  53e134:	6f63206f 	.word	0x6f63206f
  53e138:	69207970 	.word	0x69207970
  53e13c:	6567616d 	.word	0x6567616d
  53e140:	74616420 	.word	0x74616420
  53e144:	6f742061 	.word	0x6f742061
  53e148:	646e6520 	.word	0x646e6520
  53e14c:	2121000a 	.word	0x2121000a
  53e150:	20212121 	.word	0x20212121
  53e154:	206c6c61 	.word	0x206c6c61
  53e158:	61746164 	.word	0x61746164
  53e15c:	61727420 	.word	0x61727420
  53e160:	6566736e 	.word	0x6566736e
  53e164:	64657272 	.word	0x64657272
  53e168:	206f7420 	.word	0x206f7420
  53e16c:	616c6665 	.word	0x616c6665
  53e170:	000a6873 	.word	0x000a6873
  53e174:	21212121 	.word	0x21212121
  53e178:	52452021 	.word	0x52452021
  53e17c:	20524f52 	.word	0x20524f52
  53e180:	74697865 	.word	0x74697865
  53e184:	20676e69 	.word	0x20676e69
  53e188:	65636977 	.word	0x65636977
  53e18c:	69665f64 	.word	0x69665f64
  53e190:	61776d72 	.word	0x61776d72
  53e194:	755f6572 	.word	0x755f6572
  53e198:	74616470 	.word	0x74616470
  53e19c:	6f635f65 	.word	0x6f635f65
  53e1a0:	735f7970 	.word	0x735f7970
  53e1a4:	73616c66 	.word	0x73616c66
  53e1a8:	00000a68 	.word	0x00000a68

0053e1ac <init_wiced_firmware_update_copy_sflash>:
  53e1ac:	4801      	ldr	r0, [pc, #4]	; (53e1b4 <init_wiced_firmware_update_copy_sflash+0x8>)
  53e1ae:	4b02      	ldr	r3, [pc, #8]	; (53e1b8 <init_wiced_firmware_update_copy_sflash+0xc>)
  53e1b0:	4718      	bx	r3
  53e1b2:	bf00      	nop
  53e1b4:	0053e3d5 	.word	0x0053e3d5
  53e1b8:	0053e471 	.word	0x0053e471

0053e1bc <switch_stack>:
  53e1bc:	4685      	mov	sp, r0
  53e1be:	46f7      	mov	pc, lr

0053e1c0 <read_ofu_data>:
  53e1c0:	b570      	push	{r4, r5, r6, lr}
  53e1c2:	4b09      	ldr	r3, [pc, #36]	; (53e1e8 <read_ofu_data+0x28>)
  53e1c4:	4614      	mov	r4, r2
  53e1c6:	460e      	mov	r6, r1
  53e1c8:	4605      	mov	r5, r0
  53e1ca:	4798      	blx	r3
  53e1cc:	4632      	mov	r2, r6
  53e1ce:	4621      	mov	r1, r4
  53e1d0:	4628      	mov	r0, r5
  53e1d2:	4b06      	ldr	r3, [pc, #24]	; (53e1ec <read_ofu_data+0x2c>)
  53e1d4:	4798      	blx	r3
  53e1d6:	42a0      	cmp	r0, r4
  53e1d8:	d004      	beq.n	53e1e4 <read_ofu_data+0x24>
  53e1da:	4805      	ldr	r0, [pc, #20]	; (53e1f0 <read_ofu_data+0x30>)
  53e1dc:	4b05      	ldr	r3, [pc, #20]	; (53e1f4 <read_ofu_data+0x34>)
  53e1de:	4798      	blx	r3
  53e1e0:	2028      	movs	r0, #40	; 0x28
  53e1e2:	bd70      	pop	{r4, r5, r6, pc}
  53e1e4:	2000      	movs	r0, #0
  53e1e6:	e7fc      	b.n	53e1e2 <read_ofu_data+0x22>
  53e1e8:	0053e405 	.word	0x0053e405
  53e1ec:	000d3815 	.word	0x000d3815
  53e1f0:	0053e01a 	.word	0x0053e01a
  53e1f4:	000d39cf 	.word	0x000d39cf

0053e1f8 <wiced_firmware_update_copy_sflash>:
  53e1f8:	e92d 4ff7 	stmdb	sp!, {r0, r1, r2, r4, r5, r6, r7, r8, r9, sl, fp, lr}
  53e1fc:	4b57      	ldr	r3, [pc, #348]	; (53e35c <wiced_firmware_update_copy_sflash+0x164>)
  53e1fe:	2400      	movs	r4, #0
  53e200:	9401      	str	r4, [sp, #4]
  53e202:	4798      	blx	r3
  53e204:	4b56      	ldr	r3, [pc, #344]	; (53e360 <wiced_firmware_update_copy_sflash+0x168>)
  53e206:	4680      	mov	r8, r0
  53e208:	4798      	blx	r3
  53e20a:	4623      	mov	r3, r4
  53e20c:	4622      	mov	r2, r4
  53e20e:	2120      	movs	r1, #32
  53e210:	4c54      	ldr	r4, [pc, #336]	; (53e364 <wiced_firmware_update_copy_sflash+0x16c>)
  53e212:	2021      	movs	r0, #33	; 0x21
  53e214:	47a0      	blx	r4
  53e216:	4954      	ldr	r1, [pc, #336]	; (53e368 <wiced_firmware_update_copy_sflash+0x170>)
  53e218:	4854      	ldr	r0, [pc, #336]	; (53e36c <wiced_firmware_update_copy_sflash+0x174>)
  53e21a:	4b55      	ldr	r3, [pc, #340]	; (53e370 <wiced_firmware_update_copy_sflash+0x178>)
  53e21c:	4c55      	ldr	r4, [pc, #340]	; (53e374 <wiced_firmware_update_copy_sflash+0x17c>)
  53e21e:	2208      	movs	r2, #8
  53e220:	4798      	blx	r3
  53e222:	210f      	movs	r1, #15
  53e224:	2800      	cmp	r0, #0
  53e226:	d12f      	bne.n	53e288 <wiced_firmware_update_copy_sflash+0x90>
  53e228:	200a      	movs	r0, #10
  53e22a:	47a0      	blx	r4
  53e22c:	210d      	movs	r1, #13
  53e22e:	2002      	movs	r0, #2
  53e230:	47a0      	blx	r4
  53e232:	210e      	movs	r1, #14
  53e234:	200f      	movs	r0, #15
  53e236:	47a0      	blx	r4
  53e238:	2110      	movs	r1, #16
  53e23a:	2008      	movs	r0, #8
  53e23c:	47a0      	blx	r4
  53e23e:	484e      	ldr	r0, [pc, #312]	; (53e378 <wiced_firmware_update_copy_sflash+0x180>)
  53e240:	4c4e      	ldr	r4, [pc, #312]	; (53e37c <wiced_firmware_update_copy_sflash+0x184>)
  53e242:	4d4f      	ldr	r5, [pc, #316]	; (53e380 <wiced_firmware_update_copy_sflash+0x188>)
  53e244:	47a0      	blx	r4
  53e246:	4b4f      	ldr	r3, [pc, #316]	; (53e384 <wiced_firmware_update_copy_sflash+0x18c>)
  53e248:	4798      	blx	r3
  53e24a:	4b4f      	ldr	r3, [pc, #316]	; (53e388 <wiced_firmware_update_copy_sflash+0x190>)
  53e24c:	4798      	blx	r3
  53e24e:	2100      	movs	r1, #0
  53e250:	f44f 7000 	mov.w	r0, #512	; 0x200
  53e254:	47a8      	blx	r5
  53e256:	4607      	mov	r7, r0
  53e258:	b188      	cbz	r0, 53e27e <wiced_firmware_update_copy_sflash+0x86>
  53e25a:	2100      	movs	r1, #0
  53e25c:	f44f 7000 	mov.w	r0, #512	; 0x200
  53e260:	47a8      	blx	r5
  53e262:	4681      	mov	r9, r0
  53e264:	b158      	cbz	r0, 53e27e <wiced_firmware_update_copy_sflash+0x86>
  53e266:	4849      	ldr	r0, [pc, #292]	; (53e38c <wiced_firmware_update_copy_sflash+0x194>)
  53e268:	47a0      	blx	r4
  53e26a:	f44f 7200 	mov.w	r2, #512	; 0x200
  53e26e:	4639      	mov	r1, r7
  53e270:	4640      	mov	r0, r8
  53e272:	4b47      	ldr	r3, [pc, #284]	; (53e390 <wiced_firmware_update_copy_sflash+0x198>)
  53e274:	4798      	blx	r3
  53e276:	4605      	mov	r5, r0
  53e278:	b188      	cbz	r0, 53e29e <wiced_firmware_update_copy_sflash+0xa6>
  53e27a:	4846      	ldr	r0, [pc, #280]	; (53e394 <wiced_firmware_update_copy_sflash+0x19c>)
  53e27c:	47a0      	blx	r4
  53e27e:	4846      	ldr	r0, [pc, #280]	; (53e398 <wiced_firmware_update_copy_sflash+0x1a0>)
  53e280:	47a0      	blx	r4
  53e282:	b003      	add	sp, #12
  53e284:	e8bd 8ff0 	ldmia.w	sp!, {r4, r5, r6, r7, r8, r9, sl, fp, pc}
  53e288:	2006      	movs	r0, #6
  53e28a:	47a0      	blx	r4
  53e28c:	210d      	movs	r1, #13
  53e28e:	2009      	movs	r0, #9
  53e290:	47a0      	blx	r4
  53e292:	210e      	movs	r1, #14
  53e294:	200b      	movs	r0, #11
  53e296:	47a0      	blx	r4
  53e298:	2110      	movs	r1, #16
  53e29a:	2011      	movs	r0, #17
  53e29c:	e7ce      	b.n	53e23c <wiced_firmware_update_copy_sflash+0x44>
  53e29e:	2204      	movs	r2, #4
  53e2a0:	eb0d 0002 	add.w	r0, sp, r2
  53e2a4:	4b3d      	ldr	r3, [pc, #244]	; (53e39c <wiced_firmware_update_copy_sflash+0x1a4>)
  53e2a6:	4639      	mov	r1, r7
  53e2a8:	4798      	blx	r3
  53e2aa:	9b01      	ldr	r3, [sp, #4]
  53e2ac:	4a3c      	ldr	r2, [pc, #240]	; (53e3a0 <wiced_firmware_update_copy_sflash+0x1a8>)
  53e2ae:	3b1a      	subs	r3, #26
  53e2b0:	4293      	cmp	r3, r2
  53e2b2:	d901      	bls.n	53e2b8 <wiced_firmware_update_copy_sflash+0xc0>
  53e2b4:	483b      	ldr	r0, [pc, #236]	; (53e3a4 <wiced_firmware_update_copy_sflash+0x1ac>)
  53e2b6:	e7e1      	b.n	53e27c <wiced_firmware_update_copy_sflash+0x84>
  53e2b8:	483b      	ldr	r0, [pc, #236]	; (53e3a8 <wiced_firmware_update_copy_sflash+0x1b0>)
  53e2ba:	47a0      	blx	r4
  53e2bc:	462b      	mov	r3, r5
  53e2be:	4628      	mov	r0, r5
  53e2c0:	f44f 7200 	mov.w	r2, #512	; 0x200
  53e2c4:	4d39      	ldr	r5, [pc, #228]	; (53e3ac <wiced_firmware_update_copy_sflash+0x1b4>)
  53e2c6:	4649      	mov	r1, r9
  53e2c8:	47a8      	blx	r5
  53e2ca:	46aa      	mov	sl, r5
  53e2cc:	b360      	cbz	r0, 53e328 <wiced_firmware_update_copy_sflash+0x130>
  53e2ce:	4838      	ldr	r0, [pc, #224]	; (53e3b0 <wiced_firmware_update_copy_sflash+0x1b8>)
  53e2d0:	e7d4      	b.n	53e27c <wiced_firmware_update_copy_sflash+0x84>
  53e2d2:	eb05 0b08 	add.w	fp, r5, r8
  53e2d6:	f44f 7100 	mov.w	r1, #512	; 0x200
  53e2da:	4658      	mov	r0, fp
  53e2dc:	4b35      	ldr	r3, [pc, #212]	; (53e3b4 <wiced_firmware_update_copy_sflash+0x1bc>)
  53e2de:	4798      	blx	r3
  53e2e0:	b108      	cbz	r0, 53e2e6 <wiced_firmware_update_copy_sflash+0xee>
  53e2e2:	4835      	ldr	r0, [pc, #212]	; (53e3b8 <wiced_firmware_update_copy_sflash+0x1c0>)
  53e2e4:	e01a      	b.n	53e31c <wiced_firmware_update_copy_sflash+0x124>
  53e2e6:	4632      	mov	r2, r6
  53e2e8:	4639      	mov	r1, r7
  53e2ea:	4658      	mov	r0, fp
  53e2ec:	4b33      	ldr	r3, [pc, #204]	; (53e3bc <wiced_firmware_update_copy_sflash+0x1c4>)
  53e2ee:	4798      	blx	r3
  53e2f0:	b108      	cbz	r0, 53e2f6 <wiced_firmware_update_copy_sflash+0xfe>
  53e2f2:	4833      	ldr	r0, [pc, #204]	; (53e3c0 <wiced_firmware_update_copy_sflash+0x1c8>)
  53e2f4:	e012      	b.n	53e31c <wiced_firmware_update_copy_sflash+0x124>
  53e2f6:	f505 7500 	add.w	r5, r5, #512	; 0x200
  53e2fa:	9e01      	ldr	r6, [sp, #4]
  53e2fc:	42b5      	cmp	r5, r6
  53e2fe:	d20e      	bcs.n	53e31e <wiced_firmware_update_copy_sflash+0x126>
  53e300:	1b76      	subs	r6, r6, r5
  53e302:	f5b6 7f00 	cmp.w	r6, #512	; 0x200
  53e306:	bf28      	it	cs
  53e308:	f44f 7600 	movcs.w	r6, #512	; 0x200
  53e30c:	2300      	movs	r3, #0
  53e30e:	4632      	mov	r2, r6
  53e310:	4639      	mov	r1, r7
  53e312:	4628      	mov	r0, r5
  53e314:	47d0      	blx	sl
  53e316:	2800      	cmp	r0, #0
  53e318:	d0db      	beq.n	53e2d2 <wiced_firmware_update_copy_sflash+0xda>
  53e31a:	482a      	ldr	r0, [pc, #168]	; (53e3c4 <wiced_firmware_update_copy_sflash+0x1cc>)
  53e31c:	47a0      	blx	r4
  53e31e:	9b01      	ldr	r3, [sp, #4]
  53e320:	429d      	cmp	r5, r3
  53e322:	d204      	bcs.n	53e32e <wiced_firmware_update_copy_sflash+0x136>
  53e324:	4828      	ldr	r0, [pc, #160]	; (53e3c8 <wiced_firmware_update_copy_sflash+0x1d0>)
  53e326:	e7a9      	b.n	53e27c <wiced_firmware_update_copy_sflash+0x84>
  53e328:	f44f 7500 	mov.w	r5, #512	; 0x200
  53e32c:	e7e5      	b.n	53e2fa <wiced_firmware_update_copy_sflash+0x102>
  53e32e:	f44f 7100 	mov.w	r1, #512	; 0x200
  53e332:	4640      	mov	r0, r8
  53e334:	4b1f      	ldr	r3, [pc, #124]	; (53e3b4 <wiced_firmware_update_copy_sflash+0x1bc>)
  53e336:	4798      	blx	r3
  53e338:	b108      	cbz	r0, 53e33e <wiced_firmware_update_copy_sflash+0x146>
  53e33a:	481f      	ldr	r0, [pc, #124]	; (53e3b8 <wiced_firmware_update_copy_sflash+0x1c0>)
  53e33c:	e79e      	b.n	53e27c <wiced_firmware_update_copy_sflash+0x84>
  53e33e:	f44f 7200 	mov.w	r2, #512	; 0x200
  53e342:	4649      	mov	r1, r9
  53e344:	4640      	mov	r0, r8
  53e346:	4b1d      	ldr	r3, [pc, #116]	; (53e3bc <wiced_firmware_update_copy_sflash+0x1c4>)
  53e348:	4798      	blx	r3
  53e34a:	b108      	cbz	r0, 53e350 <wiced_firmware_update_copy_sflash+0x158>
  53e34c:	481c      	ldr	r0, [pc, #112]	; (53e3c0 <wiced_firmware_update_copy_sflash+0x1c8>)
  53e34e:	e795      	b.n	53e27c <wiced_firmware_update_copy_sflash+0x84>
  53e350:	481e      	ldr	r0, [pc, #120]	; (53e3cc <wiced_firmware_update_copy_sflash+0x1d4>)
  53e352:	47a0      	blx	r4
  53e354:	4b1e      	ldr	r3, [pc, #120]	; (53e3d0 <wiced_firmware_update_copy_sflash+0x1d8>)
  53e356:	4798      	blx	r3
  53e358:	e791      	b.n	53e27e <wiced_firmware_update_copy_sflash+0x86>
  53e35a:	bf00      	nop
  53e35c:	0053e467 	.word	0x0053e467
  53e360:	000d3935 	.word	0x000d3935
  53e364:	000d3947 	.word	0x000d3947
  53e368:	0053e037 	.word	0x0053e037
  53e36c:	0053e040 	.word	0x0053e040
  53e370:	0007dec9 	.word	0x0007dec9
  53e374:	00083471 	.word	0x00083471
  53e378:	0053e051 	.word	0x0053e051
  53e37c:	000d39cf 	.word	0x000d39cf
  53e380:	00001dd1 	.word	0x00001dd1
  53e384:	0053e405 	.word	0x0053e405
  53e388:	0053e42b 	.word	0x0053e42b
  53e38c:	0053e079 	.word	0x0053e079
  53e390:	000d3a4b 	.word	0x000d3a4b
  53e394:	0053e08c 	.word	0x0053e08c
  53e398:	0053e174 	.word	0x0053e174
  53e39c:	00006d31 	.word	0x00006d31
  53e3a0:	0003ffe6 	.word	0x0003ffe6
  53e3a4:	0053e0a3 	.word	0x0053e0a3
  53e3a8:	0053e0cd 	.word	0x0053e0cd
  53e3ac:	0053e1c1 	.word	0x0053e1c1
  53e3b0:	0053e0dc 	.word	0x0053e0dc
  53e3b4:	000d3a6f 	.word	0x000d3a6f
  53e3b8:	0053e104 	.word	0x0053e104
  53e3bc:	000d3a5d 	.word	0x000d3a5d
  53e3c0:	0053e115 	.word	0x0053e115
  53e3c4:	0053e01a 	.word	0x0053e01a
  53e3c8:	0053e126 	.word	0x0053e126
  53e3cc:	0053e14e 	.word	0x0053e14e
  53e3d0:	0053e409 	.word	0x0053e409

0053e3d4 <wiced_firmware_update_copy_sflash_start>:
  53e3d4:	2804      	cmp	r0, #4
  53e3d6:	b508      	push	{r3, lr}
  53e3d8:	d10b      	bne.n	53e3f2 <wiced_firmware_update_copy_sflash_start+0x1e>
  53e3da:	2100      	movs	r1, #0
  53e3dc:	f44f 6040 	mov.w	r0, #3072	; 0xc00
  53e3e0:	4b05      	ldr	r3, [pc, #20]	; (53e3f8 <wiced_firmware_update_copy_sflash_start+0x24>)
  53e3e2:	4798      	blx	r3
  53e3e4:	b128      	cbz	r0, 53e3f2 <wiced_firmware_update_copy_sflash_start+0x1e>
  53e3e6:	4b05      	ldr	r3, [pc, #20]	; (53e3fc <wiced_firmware_update_copy_sflash_start+0x28>)
  53e3e8:	f600 30ff 	addw	r0, r0, #3071	; 0xbff
  53e3ec:	4798      	blx	r3
  53e3ee:	4b04      	ldr	r3, [pc, #16]	; (53e400 <wiced_firmware_update_copy_sflash_start+0x2c>)
  53e3f0:	4798      	blx	r3
  53e3f2:	2000      	movs	r0, #0
  53e3f4:	bd08      	pop	{r3, pc}
  53e3f6:	bf00      	nop
  53e3f8:	00001dd1 	.word	0x00001dd1
  53e3fc:	0053e1bd 	.word	0x0053e1bd
  53e400:	0053e1f9 	.word	0x0053e1f9

0053e404 <wiced_ofu_pet_watchdog>:
  53e404:	f6c3 b396 	b.w	1b34 <watchdog_PetWatchDog>

0053e408 <wiced_ofu_reset_device>:
  53e408:	4871      	ldr	r0, [pc, #452]	; (53e5d0 <wiced_ofu_get_image_length+0x8>)
  53e40a:	6801      	ldr	r1, [r0, #0]
  53e40c:	f421 7100 	bic.w	r1, r1, #512	; 0x200
  53e410:	6001      	str	r1, [r0, #0]
  53e412:	4870      	ldr	r0, [pc, #448]	; (53e5d4 <wiced_ofu_get_image_length+0xc>)
  53e414:	f04f 0100 	mov.w	r1, #0
  53e418:	6081      	str	r1, [r0, #8]
  53e41a:	f04f 0205 	mov.w	r2, #5
  53e41e:	6002      	str	r2, [r0, #0]
  53e420:	60c1      	str	r1, [r0, #12]
  53e422:	f04f 0103 	mov.w	r1, #3
  53e426:	6081      	str	r1, [r0, #8]
  53e428:	e7fe      	b.n	53e428 <wiced_ofu_reset_device+0x20>

0053e42a <wiced_ofu_sflash_init>:
  53e42a:	b510      	push	{r4, lr}
  53e42c:	f6d9 f494 	bl	17d58 <sfi_init>
  53e430:	4c69      	ldr	r4, [pc, #420]	; (53e5d8 <wiced_ofu_get_image_length+0x10>)
  53e432:	2055      	movs	r0, #85	; 0x55
  53e434:	7020      	strb	r0, [r4, #0]
  53e436:	4620      	mov	r0, r4
  53e438:	f6d9 f4ea 	bl	17e10 <sfi_read_id>
  53e43c:	2800      	cmp	r0, #0
  53e43e:	d011      	beq.n	53e464 <wiced_ofu_sflash_init+0x3a>
  53e440:	7820      	ldrb	r0, [r4, #0]
  53e442:	28c8      	cmp	r0, #200	; 0xc8
  53e444:	d102      	bne.n	53e44c <wiced_ofu_sflash_init+0x22>
  53e446:	7860      	ldrb	r0, [r4, #1]
  53e448:	2864      	cmp	r0, #100	; 0x64
  53e44a:	d003      	beq.n	53e454 <wiced_ofu_sflash_init+0x2a>
  53e44c:	e8bd 4010 	ldmia.w	sp!, {r4, lr}
  53e450:	f6d9 b52a 	b.w	17ea8 <sfi_detected>
  53e454:	4961      	ldr	r1, [pc, #388]	; (53e5dc <wiced_ofu_get_image_length+0x14>)
  53e456:	20ec      	movs	r0, #236	; 0xec
  53e458:	7008      	strb	r0, [r1, #0]
  53e45a:	4861      	ldr	r0, [pc, #388]	; (53e5e0 <wiced_ofu_get_image_length+0x18>)
  53e45c:	7801      	ldrb	r1, [r0, #0]
  53e45e:	f041 0101 	orr.w	r1, r1, #1
  53e462:	7001      	strb	r1, [r0, #0]
  53e464:	bd10      	pop	{r4, pc}

0053e466 <wiced_ofu_get_ds1_offset>:
  53e466:	485f      	ldr	r0, [pc, #380]	; (53e5e4 <wiced_ofu_get_image_length+0x1c>)
  53e468:	69c0      	ldr	r0, [r0, #28]
  53e46a:	f5a0 00a0 	sub.w	r0, r0, #5242880	; 0x500000
  53e46e:	4770      	bx	lr

0053e470 <wiced_ofu_set_post_config_callback>:
  53e470:	495d      	ldr	r1, [pc, #372]	; (53e5e8 <wiced_ofu_get_image_length+0x20>)
  53e472:	6008      	str	r0, [r1, #0]
  53e474:	4770      	bx	lr

0053e476 <wiced_ofu_get_external_storage_context_size>:
  53e476:	f44f 70a2 	mov.w	r0, #324	; 0x144
  53e47a:	4770      	bx	lr

0053e47c <rand128>:
  53e47c:	b570      	push	{r4, r5, r6, lr}
  53e47e:	4604      	mov	r4, r0
  53e480:	2500      	movs	r5, #0
  53e482:	f774 f06e 	bl	b2562 <rbg_rand>
  53e486:	1c6d      	adds	r5, r5, #1
  53e488:	f844 0b04 	str.w	r0, [r4], #4
  53e48c:	2d04      	cmp	r5, #4
  53e48e:	dbf8      	blt.n	53e482 <rand128+0x6>
  53e490:	bd70      	pop	{r4, r5, r6, pc}

0053e492 <wiced_ofu_new_external_storage_key>:
  53e492:	b570      	push	{r4, r5, r6, lr}
  53e494:	460e      	mov	r6, r1
  53e496:	4614      	mov	r4, r2
  53e498:	f102 052c 	add.w	r5, r2, #44	; 0x2c
  53e49c:	f44f 71a2 	mov.w	r1, #324	; 0x144
  53e4a0:	4610      	mov	r0, r2
  53e4a2:	f741 f581 	bl	7ffa8 <__aeabi_memclr>
  53e4a6:	6026      	str	r6, [r4, #0]
  53e4a8:	f104 0018 	add.w	r0, r4, #24
  53e4ac:	4604      	mov	r4, r0
  53e4ae:	f7ff ffe5 	bl	53e47c <rand128>
  53e4b2:	2280      	movs	r2, #128	; 0x80
  53e4b4:	4621      	mov	r1, r4
  53e4b6:	4628      	mov	r0, r5
  53e4b8:	f79d f68b 	bl	dc1d2 <aes_setkey_enc>
  53e4bc:	2001      	movs	r0, #1
  53e4be:	bd70      	pop	{r4, r5, r6, pc}

0053e4c0 <wiced_ofu_store_external_storage_key>:
  53e4c0:	b538      	push	{r3, r4, r5, lr}
  53e4c2:	4602      	mov	r2, r0
  53e4c4:	f44f 74a2 	mov.w	r4, #324	; 0x144
  53e4c8:	466b      	mov	r3, sp
  53e4ca:	4621      	mov	r1, r4
  53e4cc:	f44f 5048 	mov.w	r0, #12800	; 0x3200
  53e4d0:	f74c f061 	bl	8a596 <wiced_hal_write_nvram>
  53e4d4:	f8bd 1000 	ldrh.w	r1, [sp]
  53e4d8:	b919      	cbnz	r1, 53e4e2 <wiced_ofu_store_external_storage_key+0x22>
  53e4da:	42a0      	cmp	r0, r4
  53e4dc:	d101      	bne.n	53e4e2 <wiced_ofu_store_external_storage_key+0x22>
  53e4de:	2001      	movs	r0, #1
  53e4e0:	bd38      	pop	{r3, r4, r5, pc}
  53e4e2:	2000      	movs	r0, #0
  53e4e4:	bd38      	pop	{r3, r4, r5, pc}

0053e4e6 <wiced_ofu_restore_external_storage_key>:
  53e4e6:	b5f8      	push	{r3, r4, r5, r6, r7, lr}
  53e4e8:	4604      	mov	r4, r0
  53e4ea:	f100 062c 	add.w	r6, r0, #44	; 0x2c
  53e4ee:	466b      	mov	r3, sp
  53e4f0:	4622      	mov	r2, r4
  53e4f2:	f44f 71a2 	mov.w	r1, #324	; 0x144
  53e4f6:	f44f 5048 	mov.w	r0, #12800	; 0x3200
  53e4fa:	f74c f05a 	bl	8a5b2 <wiced_hal_read_nvram>
  53e4fe:	b2c5      	uxtb	r5, r0
  53e500:	f8bd 0000 	ldrh.w	r0, [sp]
  53e504:	b990      	cbnz	r0, 53e52c <wiced_ofu_restore_external_storage_key+0x46>
  53e506:	6820      	ldr	r0, [r4, #0]
  53e508:	b968      	cbnz	r0, 53e526 <wiced_ofu_restore_external_storage_key+0x40>
  53e50a:	f44f 718c 	mov.w	r1, #280	; 0x118
  53e50e:	4630      	mov	r0, r6
  53e510:	f741 f54a 	bl	7ffa8 <__aeabi_memclr>
  53e514:	2280      	movs	r2, #128	; 0x80
  53e516:	f104 0118 	add.w	r1, r4, #24
  53e51a:	4630      	mov	r0, r6
  53e51c:	f79d f659 	bl	dc1d2 <aes_setkey_enc>
  53e520:	f8bd 0000 	ldrh.w	r0, [sp]
  53e524:	b910      	cbnz	r0, 53e52c <wiced_ofu_restore_external_storage_key+0x46>
  53e526:	b10d      	cbz	r5, 53e52c <wiced_ofu_restore_external_storage_key+0x46>
  53e528:	2001      	movs	r0, #1
  53e52a:	bdf8      	pop	{r3, r4, r5, r6, r7, pc}
  53e52c:	2000      	movs	r0, #0
  53e52e:	bdf8      	pop	{r3, r4, r5, r6, r7, pc}

0053e530 <wiced_ofu_crypt>:
  53e530:	e92d 47f0 	stmdb	sp!, {r4, r5, r6, r7, r8, r9, sl, lr}
  53e534:	460d      	mov	r5, r1
  53e536:	f8dd 9020 	ldr.w	r9, [sp, #32]
  53e53a:	4616      	mov	r6, r2
  53e53c:	461f      	mov	r7, r3
  53e53e:	f899 4028 	ldrb.w	r4, [r9, #40]	; 0x28
  53e542:	f8d9 1000 	ldr.w	r1, [r9]
  53e546:	f109 0a2c 	add.w	sl, r9, #44	; 0x2c
  53e54a:	f109 0808 	add.w	r8, r9, #8
  53e54e:	b111      	cbz	r1, 53e556 <wiced_ofu_crypt+0x26>
  53e550:	2000      	movs	r0, #0
  53e552:	e8bd 87f0 	ldmia.w	sp!, {r4, r5, r6, r7, r8, r9, sl, pc}
  53e556:	b998      	cbnz	r0, 53e580 <wiced_ofu_crypt+0x50>
  53e558:	e02b      	b.n	53e5b2 <wiced_ofu_crypt+0x82>
  53e55a:	b92c      	cbnz	r4, 53e568 <wiced_ofu_crypt+0x38>
  53e55c:	4643      	mov	r3, r8
  53e55e:	461a      	mov	r2, r3
  53e560:	2101      	movs	r1, #1
  53e562:	4650      	mov	r0, sl
  53e564:	f79d f78b 	bl	dc47e <aes_crypt_ecb>
  53e568:	f818 0004 	ldrb.w	r0, [r8, r4]
  53e56c:	f816 1b01 	ldrb.w	r1, [r6], #1
  53e570:	4048      	eors	r0, r1
  53e572:	f807 0b01 	strb.w	r0, [r7], #1
  53e576:	f808 0004 	strb.w	r0, [r8, r4]
  53e57a:	1c64      	adds	r4, r4, #1
  53e57c:	f004 040f 	and.w	r4, r4, #15
  53e580:	0028      	movs	r0, r5
  53e582:	f1a5 0501 	sub.w	r5, r5, #1
  53e586:	b2ad      	uxth	r5, r5
  53e588:	d1e7      	bne.n	53e55a <wiced_ofu_crypt+0x2a>
  53e58a:	e017      	b.n	53e5bc <wiced_ofu_crypt+0x8c>
  53e58c:	b92c      	cbnz	r4, 53e59a <wiced_ofu_crypt+0x6a>
  53e58e:	4643      	mov	r3, r8
  53e590:	461a      	mov	r2, r3
  53e592:	2101      	movs	r1, #1
  53e594:	4650      	mov	r0, sl
  53e596:	f79d f772 	bl	dc47e <aes_crypt_ecb>
  53e59a:	f816 0b01 	ldrb.w	r0, [r6], #1
  53e59e:	f818 1004 	ldrb.w	r1, [r8, r4]
  53e5a2:	4041      	eors	r1, r0
  53e5a4:	f807 1b01 	strb.w	r1, [r7], #1
  53e5a8:	f808 0004 	strb.w	r0, [r8, r4]
  53e5ac:	1c64      	adds	r4, r4, #1
  53e5ae:	f004 040f 	and.w	r4, r4, #15
  53e5b2:	0028      	movs	r0, r5
  53e5b4:	f1a5 0501 	sub.w	r5, r5, #1
  53e5b8:	b2ad      	uxth	r5, r5
  53e5ba:	d1e7      	bne.n	53e58c <wiced_ofu_crypt+0x5c>
  53e5bc:	f889 4028 	strb.w	r4, [r9, #40]	; 0x28
  53e5c0:	2001      	movs	r0, #1
  53e5c2:	e7c6      	b.n	53e552 <wiced_ofu_crypt+0x22>

0053e5c4 <wiced_ofu_store_image_length>:
  53e5c4:	6048      	str	r0, [r1, #4]
  53e5c6:	4770      	bx	lr

0053e5c8 <wiced_ofu_get_image_length>:
  53e5c8:	6840      	ldr	r0, [r0, #4]
  53e5ca:	b280      	uxth	r0, r0
  53e5cc:	4770      	bx	lr
  53e5ce:	0000      	.short	0x0000
  53e5d0:	00338148 	.word	0x00338148
  53e5d4:	00329000 	.word	0x00329000
  53e5d8:	00200bf2 	.word	0x00200bf2
  53e5dc:	002058b4 	.word	0x002058b4
  53e5e0:	002058cc 	.word	0x002058cc
  53e5e4:	0020052c 	.word	0x0020052c
  53e5e8:	0020584c 	.word	0x0020584c
  53e5ec:	00000000 	.word	0x00000000
  53e5f0:	00003841 	.word	0x00003841
  53e5f4:	61656100 	.word	0x61656100
  53e5f8:	01006962 	.word	0x01006962
  53e5fc:	0000002e 	.word	0x0000002e
  53e600:	302e3243 	.word	0x302e3243
  53e604:	43050036 	.word	0x43050036
  53e608:	6574726f 	.word	0x6574726f
  53e60c:	344d2d78 	.word	0x344d2d78
  53e610:	070d0600 	.word	0x070d0600
  53e614:	1102094d 	.word	0x1102094d
  53e618:	14021201 	.word	0x14021201
  53e61c:	18011702 	.word	0x18011702
  53e620:	1a011901 	.word	0x1a011901
  53e624:	22031e01 	.word	0x22031e01
  53e628:	00000f01 	.word	0x00000f01
  53e62c:	4d524100 	.word	0x4d524100
  53e630:	00070100 	.word	0x00070100
  53e634:	01120000 	.word	0x01120000

Disassembly of section .app_xip_area:

00511500 <mesh_app_factory_reset>:
  511500:	f44f2100 	.word	0xf44f2100
  511504:	4b017000 	.word	0x4b017000
  511508:	bf004718 	.word	0xbf004718
  51150c:	0008a5cd 	.word	0x0008a5cd

00511510 <mesh_sensor_server_restart_timer>:
  511510:	4d13b570 	.word	0x4d13b570
  511514:	682c4b13 	.word	0x682c4b13
  511518:	48134606 	.word	0x48134606
  51151c:	682a4798 	.word	0x682a4798
  511520:	89f3b1e2 	.word	0x89f3b1e2
  511524:	bf952b01 	.word	0xbf952b01
  511528:	fbb22300 	.word	0xfbb22300
  51152c:	606bf4f3 	.word	0x606bf4f3
  511530:	69f5606c 	.word	0x69f5606c
  511534:	42a5b165 	.word	0x42a5b165
  511538:	69b3d90a 	.word	0x69b3d90a
  51153c:	6973b90b 	.word	0x6973b90b
  511540:	2100b133 	.word	0x2100b133
  511544:	4a0a4c09 	.word	0x4a0a4c09
  511548:	4608462b 	.word	0x4608462b
  51154c:	462c47a0 	.word	0x462c47a0
  511550:	48054621 	.word	0x48054621
  511554:	e8bd4b07 	.word	0xe8bd4b07
  511558:	47184070 	.word	0x47184070
  51155c:	bf00bd70 	.word	0xbf00bd70
  511560:	00210324 	.word	0x00210324
  511564:	000064ad 	.word	0x000064ad
  511568:	098c      	lsrs	r4, r1, #6
  51156a:	0021      	movs	r1, r4
  51156c:	000d3259 	.word	0x000d3259
  511570:	1c34      	adds	r4, r6, #0
  511572:	0051      	.short	0x0051
  511574:	647b      	str	r3, [r7, #68]	; 0x44
	...

00511578 <mesh_app_hardware_init>:
  511578:	4b012000 	.word	0x4b012000
  51157c:	4718      	bx	r3
  51157e:	bf00      	.short	0xbf00
  511580:	2115      	movs	r1, #21
  511582:	0051      	.short	0x0051

00511584 <mesh_app_init>:
  511584:	e92d 43f0 	stmdb	sp!, {r4, r5, r6, r7, r8, r9, lr}
  511588:	4c404e3f 	.word	0x4c404e3f
  51158c:	4a40      	ldr	r2, [pc, #256]	; (511690 <mesh_app_init+0x10c>)
  51158e:	6032      	.short	0x6032
  511590:	f240 5341 	movw	r3, #1345	; 0x541
  511594:	305cf8a6 	.word	0x305cf8a6
  511598:	2330      	movs	r3, #48	; 0x30
  51159a:	7023      	.short	0x7023
  51159c:	70a3      	strb	r3, [r4, #2]
  51159e:	7123      	.short	0x7123
  5115a0:	2334      	movs	r3, #52	; 0x34
  5115a2:	7163      	.short	0x7163
  5115a4:	2393      	movs	r3, #147	; 0x93
  5115a6:	2131      	.short	0x2131
  5115a8:	71a3      	strb	r3, [r4, #6]
  5115aa:	2333      	.short	0x2333
  5115ac:	b089      	sub	sp, #36	; 0x24
  5115ae:	7061      	.short	0x7061
  5115b0:	70e1      	strb	r1, [r4, #3]
  5115b2:	71e3      	.short	0x71e3
  5115b4:	4605      	mov	r5, r0
  5115b6:	f8df      	.short	0xf8df
  5115b8:	8124      	strh	r4, [r4, #8]
  5115ba:	4f36      	.short	0x4f36
  5115bc:	bb30      	cbnz	r0, 51160c <mesh_app_init+0x88>
  5115be:	2309      	.short	0x2309
  5115c0:	4610      	mov	r0, r2
  5115c2:	f88d      	.short	0xf88d
  5115c4:	300e      	adds	r0, #14
  5115c6:	4b34      	.short	0x4b34
  5115c8:	4798      	blx	r3
  5115ca:	6833      	.short	0x6833
  5115cc:	9302      	str	r3, [sp, #8]
  5115ce:	2319      	.short	0x2319
  5115d0:	f88d 3016 	strb.w	r3, [sp, #22]
  5115d4:	305cf8b6 	.word	0x305cf8b6
  5115d8:	f88d 3004 	strb.w	r3, [sp, #4]
  5115dc:	f8ad0a1b 	.word	0xf8ad0a1b
  5115e0:	000c      	movs	r4, r1
  5115e2:	f88d      	.short	0xf88d
  5115e4:	3005      	adds	r0, #5
  5115e6:	2002      	.short	0x2002
  5115e8:	ab01      	add	r3, sp, #4
  5115ea:	9304      	.short	0x9304
  5115ec:	a902      	add	r1, sp, #8
  5115ee:	4b2b      	.short	0x4b2b
  5115f0:	f8ad 0014 	strh.w	r0, [sp, #20]
  5115f4:	46294798 	.word	0x46294798
  5115f8:	4628      	mov	r0, r5
  5115fa:	47c0      	.short	0x47c0
  5115fc:	462b      	mov	r3, r5
  5115fe:	4a28      	.short	0x4a28
  511600:	4928      	ldr	r1, [pc, #160]	; (5116a4 <mesh_app_init+0x120>)
  511602:	4628      	.short	0x4628
  511604:	47b8      	blx	r7
  511606:	b009      	.short	0xb009
  511608:	e8bd 83f0 	ldmia.w	sp!, {r4, r5, r6, r7, r8, r9, pc}
  51160c:	3037f8d4 	.word	0x3037f8d4
  511610:	4e25      	ldr	r6, [pc, #148]	; (5116a8 <mesh_app_init+0x124>)
  511612:	f8d3      	.short	0xf8d3
  511614:	9014      	str	r0, [sp, #80]	; 0x50
  511616:	4601      	.short	0x4601
  511618:	2000      	movs	r0, #0
  51161a:	47c0      	.short	0x47c0
  51161c:	f104 003c 	add.w	r0, r4, #60	; 0x3c
  511620:	49222200 	.word	0x49222200
  511624:	4b22      	ldr	r3, [pc, #136]	; (5116b0 <mesh_app_init+0x12c>)
  511626:	f8df      	.short	0xf8df
  511628:	80b8      	strh	r0, [r7, #4]
  51162a:	4798      	.short	0x4798
  51162c:	f8d4 2037 	ldr.w	r2, [r4, #55]	; 0x37
  511630:	69524920 	.word	0x69524920
  511634:	4820      	ldr	r0, [pc, #128]	; (5116b8 <mesh_app_init+0x134>)
  511636:	2302      	.short	0x2302
  511638:	47b0      	blx	r6
  51163a:	f8d4      	.short	0xf8d4
  51163c:	2037      	movs	r0, #55	; 0x37
  51163e:	491f      	.short	0x491f
  511640:	6952      	ldr	r2, [r2, #20]
  511642:	481f      	ldr	r0, [pc, #124]	; (5116c0 <mesh_app_init+0x13c>)
  511644:	23014c1f 	.word	0x23014c1f
  511648:	47b0      	blx	r6
  51164a:	2102      	.short	0x2102
  51164c:	481c      	ldr	r0, [pc, #112]	; (5116c0 <mesh_app_init+0x13c>)
  51164e:	47a0      	.short	0x47a0
  511650:	ab02      	add	r3, sp, #8
  511652:	f109      	.short	0xf109
  511654:	020e      	lsls	r6, r1, #8
  511656:	211a      	.short	0x211a
  511658:	f44f 7000 	mov.w	r0, #512	; 0x200
  51165c:	4a1047c0 	.word	0x4a1047c0
  511660:	4910      	ldr	r1, [pc, #64]	; (5116a4 <mesh_app_init+0x120>)
  511662:	462b      	.short	0x462b
  511664:	2000      	movs	r0, #0
  511666:	47b8      	.short	0x47b8
  511668:	4b17      	ldr	r3, [pc, #92]	; (5116c8 <mesh_app_init+0x144>)
  51166a:	4798      	.short	0x4798
  51166c:	4b17      	ldr	r3, [pc, #92]	; (5116cc <mesh_app_init+0x148>)
  51166e:	4798      	.short	0x4798
  511670:	2001      	movs	r0, #1
  511672:	4b17      	.short	0x4b17
  511674:	4798      	blx	r3
  511676:	2304      	.short	0x2304
  511678:	2200      	movs	r2, #0
  51167a:	4916      	.short	0x4916
  51167c:	4816      	ldr	r0, [pc, #88]	; (5116d8 <mesh_app_init+0x154>)
  51167e:	47b0      	.short	0x47b0
  511680:	2164      	movs	r1, #100	; 0x64
  511682:	4815      	.short	0x4815
  511684:	47a0      	blx	r4
  511686:	e7be      	.short	0xe7be
  511688:	ff94 0020 	vaddl.u16	q0, d4, d16
  51168c:	00210070 	.word	0x00210070
  511690:	1c4c      	adds	r4, r1, #1
  511692:	0051      	.short	0x0051
  511694:	6081      	str	r1, [r0, #8]
  511696:	0052      	.short	0x0052
  511698:	5ad3      	ldrh	r3, [r2, r3]
  51169a:	0005      	movs	r5, r0
  51169c:	00517d41 	.word	0x00517d41
  5116a0:	1909      	adds	r1, r1, r4
  5116a2:	0051      	.short	0x0051
  5116a4:	1a49      	subs	r1, r1, r1
  5116a6:	0051      	.short	0x0051
  5116a8:	6451      	str	r1, [r2, #68]	; 0x44
  5116aa:	0000      	.short	0x0000
  5116ac:	1ac9      	subs	r1, r1, r3
  5116ae:	0051      	.short	0x0051
  5116b0:	2d05      	cmp	r5, #5
  5116b2:	0051      	.short	0x0051
  5116b4:	16e5      	asrs	r5, r4, #27
  5116b6:	0051      	.short	0x0051
  5116b8:	098c      	lsrs	r4, r1, #6
  5116ba:	0021      	.short	0x0021
  5116bc:	18d1      	adds	r1, r2, r3
  5116be:	0051      	.short	0x0051
  5116c0:	09d0      	lsrs	r0, r2, #7
  5116c2:	0021      	.short	0x0021
  5116c4:	647b      	str	r3, [r7, #68]	; 0x44
  5116c6:	0000      	.short	0x0000
  5116c8:	289d      	cmp	r0, #157	; 0x9d
  5116ca:	0051      	.short	0x0051
  5116cc:	603d      	str	r5, [r7, #0]
  5116ce:	0051      	.short	0x0051
  5116d0:	6189      	str	r1, [r1, #24]
  5116d2:	0051      	.short	0x0051
  5116d4:	1b79      	subs	r1, r7, r5
  5116d6:	0051      	.short	0x0051
  5116d8:	0a08      	lsrs	r0, r1, #8
  5116da:	0021      	.short	0x0021
  5116dc:	20e1      	movs	r0, #225	; 0xe1
  5116de:	0051      	.short	0x0051
  5116e0:	a5b3      	add	r5, pc, #716	; (adr r5, 5119b0 <mesh_sensor_server_config_change_handler+0xa8>)
  5116e2:	0008      	.short	0x0008

005116e4 <mesh_sensor_publish_timer_callback>:
  5116e4:	e92d 41ff 	stmdb	sp!, {r0, r1, r2, r3, r4, r5, r6, r7, r8, lr}
  5116e8:	4b654c64 	.word	0x4b654c64
  5116ec:	4605      	mov	r5, r0
  5116ee:	4798      	.short	0x4798
  5116f0:	68a3      	ldr	r3, [r4, #8]
  5116f2:	60e3      	.short	0x60e3
  5116f4:	69e9      	ldr	r1, [r5, #28]
  5116f6:	4680      	.short	0x4680
  5116f8:	b191      	cbz	r1, 511720 <mesh_sensor_publish_timer_callback+0x3c>
  5116fa:	4a62      	.short	0x4a62
  5116fc:	6812      	ldr	r2, [r2, #0]
  5116fe:	eba8      	.short	0xeba8
  511700:	0202      	lsls	r2, r0, #8
  511702:	4291      	.short	0x4291
  511704:	d90c      	bls.n	511720 <mesh_sensor_publish_timer_callback+0x3c>
  511706:	9100      	.short	0x9100
  511708:	2100      	movs	r1, #0
  51170a:	4613      	.short	0x4613
  51170c:	4608      	mov	r0, r1
  51170e:	4a5e      	.short	0x4a5e
  511710:	4c5e      	ldr	r4, [pc, #376]	; (51188c <mesh_sensor_publish_timer_callback+0x1a8>)
  511712:	47a0      	.short	0x47a0
  511714:	4b5e      	ldr	r3, [pc, #376]	; (511890 <mesh_sensor_publish_timer_callback+0x1ac>)
  511716:	4628      	.short	0x4628
  511718:	b004      	add	sp, #16
  51171a:	e8bd      	.short	0xe8bd
  51171c:	41f0      	rors	r0, r6
  51171e:	4718      	.short	0x4718
  511720:	6821      	ldr	r1, [r4, #0]
  511722:	b159      	.short	0xb159
  511724:	4a57      	ldr	r2, [pc, #348]	; (511884 <mesh_sensor_publish_timer_callback+0x1a0>)
  511726:	6812      	.short	0x6812
  511728:	eba8 0202 	sub.w	r2, r8, r2
  51172c:	d8054291 	.word	0xd8054291
  511730:	4a58      	ldr	r2, [pc, #352]	; (511894 <mesh_sensor_publish_timer_callback+0x1b0>)
  511732:	2100      	.short	0x2100
  511734:	4608      	mov	r0, r1
  511736:	4b55      	.short	0x4b55
  511738:	4798      	blx	r3
  51173a:	e026      	.short	0xe026
  51173c:	69a8      	ldr	r0, [r5, #24]
  51173e:	b910      	.short	0xb910
  511740:	696a      	ldr	r2, [r5, #20]
  511742:	2a00      	.short	0x2a00
  511744:	d06f      	beq.n	511826 <mesh_sensor_publish_timer_callback+0x142>
  511746:	6929      	.short	0x6929
  511748:	f994 2010 	ldrsb.w	r2, [r4, #16]
  51174c:	29004f4f 	.word	0x29004f4f
  511750:	d136      	bne.n	5117c0 <mesh_sensor_publish_timer_callback+0xdc>
  511752:	696e      	.short	0x696e
  511754:	9200      	str	r2, [sp, #0]
  511756:	e9cd      	.short	0xe9cd
  511758:	0601      	lsls	r1, r0, #24
  51175a:	4a4f      	.short	0x4a4f
  51175c:	4608      	mov	r0, r1
  51175e:	47b8      	.short	0x47b8
  511760:	69aa      	ldr	r2, [r5, #24]
  511762:	b12a      	.short	0xb12a
  511764:	f994 3010 	ldrsb.w	r3, [r4, #16]
  511768:	68e24413 	.word	0x68e24413
  51176c:	d9084293 	.word	0xd9084293
  511770:	696a      	ldr	r2, [r5, #20]
  511772:	2a00      	.short	0x2a00
  511774:	d057      	beq.n	511826 <mesh_sensor_publish_timer_callback+0x142>
  511776:	f994      	.short	0xf994
  511778:	3010      	adds	r0, #16
  51177a:	1a9b      	.short	0x1a9b
  51177c:	68e2      	ldr	r2, [r4, #12]
  51177e:	4293      	.short	0x4293
  511780:	d351      	bcc.n	511826 <mesh_sensor_publish_timer_callback+0x142>
  511782:	2100      	.short	0x2100
  511784:	4a45      	ldr	r2, [pc, #276]	; (51189c <mesh_sensor_publish_timer_callback+0x1b8>)
  511786:	4608      	.short	0x4608
  511788:	47b8      	blx	r7
  51178a:	4b45      	.short	0x4b45
  51178c:	4a3d      	ldr	r2, [pc, #244]	; (511884 <mesh_sensor_publish_timer_callback+0x1a0>)
  51178e:	881b      	.short	0x881b
  511790:	7463      	strb	r3, [r4, #17]
  511792:	4b44      	.short	0x4b44
  511794:	f8c2 8000 	str.w	r8, [r2]
  511798:	74a3681b 	.word	0x74a3681b
  51179c:	2100      	movs	r1, #0
  51179e:	f994      	.short	0xf994
  5117a0:	300c      	adds	r0, #12
  5117a2:	7423      	strb	r3, [r4, #16]
  5117a4:	f8cd4a40 	.word	0xf8cd4a40
  5117a8:	8000      	strh	r0, [r0, #0]
  5117aa:	4608      	.short	0x4608
  5117ac:	4c37      	ldr	r4, [pc, #220]	; (51188c <mesh_sensor_publish_timer_callback+0x1a8>)
  5117ae:	47a0      	.short	0x47a0
  5117b0:	4b3e      	ldr	r3, [pc, #248]	; (5118ac <mesh_sensor_publish_timer_callback+0x1c8>)
  5117b2:	2200      	.short	0x2200
  5117b4:	f8b3 104c 	ldrh.w	r1, [r3, #76]	; 0x4c
  5117b8:	46104b3d 	.word	0x46104b3d
  5117bc:	4798      	blx	r3
  5117be:	e7a9      	.short	0xe7a9
  5117c0:	4293      	cmp	r3, r2
  5117c2:	f242      	.short	0xf242
  5117c4:	7610      	strb	r0, [r2, #24]
  5117c6:	dd18      	.short	0xdd18
  5117c8:	2100      	movs	r1, #0
  5117ca:	1a9a      	.short	0x1a9a
  5117cc:	4372      	muls	r2, r6
  5117ce:	4608      	.short	0x4608
  5117d0:	fbb2 f3f3 	udiv	r3, r2, r3
  5117d4:	47b84a37 	.word	0x47b84a37
  5117d8:	68e3      	ldr	r3, [r4, #12]
  5117da:	f994      	.short	0xf994
  5117dc:	2010      	movs	r0, #16
  5117de:	1a9a      	.short	0x1a9a
  5117e0:	4356      	muls	r6, r2
  5117e2:	69aa      	.short	0x69aa
  5117e4:	fbb6 f1f3 	udiv	r1, r6, r3
  5117e8:	d91c4291 	.word	0xd91c4291
  5117ec:	fb96 f3f3 	sdiv	r3, r6, r3
  5117f0:	21004a31 	.word	0x21004a31
  5117f4:	4608      	mov	r0, r1
  5117f6:	47b8      	blx	r7
  5117f8:	2100e7c7 	.word	0x2100e7c7
  5117fc:	1ad2      	subs	r2, r2, r3
  5117fe:	4372      	.short	0x4372
  511800:	4608      	mov	r0, r1
  511802:	fbb2      	.short	0xfbb2
  511804:	f3f3 4a2d 			; <UNDEFINED> instruction: 0xf3f34a2d
  511808:	68e347b8 	.word	0x68e347b8
  51180c:	f994 2010 	ldrsb.w	r2, [r4, #16]
  511810:	43561ad2 	.word	0x43561ad2
  511814:	696a      	ldr	r2, [r5, #20]
  511816:	fbb6      	.short	0xfbb6
  511818:	f1f3 4291 			; <UNDEFINED> instruction: 0xf1f34291
  51181c:	fb96d903 	.word	0xfb96d903
  511820:	f3f3 4a27 			; <UNDEFINED> instruction: 0xf3f34a27
  511824:	6862e7e5 	.word	0x6862e7e5
  511828:	b1c2      	cbz	r2, 51185c <mesh_sensor_publish_timer_callback+0x178>
  51182a:	4b16      	.short	0x4b16
  51182c:	681b      	ldr	r3, [r3, #0]
  51182e:	eba8      	.short	0xeba8
  511830:	0303      	lsls	r3, r0, #12
  511832:	429a      	.short	0x429a
  511834:	d812      	bhi.n	51185c <mesh_sensor_publish_timer_callback+0x178>
  511836:	6a6b      	.short	0x6a6b
  511838:	6a2a      	ldr	r2, [r5, #32]
  51183a:	4293      	.short	0x4293
  51183c:	d906      	bls.n	51184c <mesh_sensor_publish_timer_callback+0x168>
  51183e:	68e1      	.short	0x68e1
  511840:	428a      	cmp	r2, r1
  511842:	d20b      	.short	0xd20b
  511844:	428b      	cmp	r3, r1
  511846:	d309      	.short	0xd309
  511848:	4a1e      	ldr	r2, [pc, #120]	; (5118c4 <mesh_sensor_publish_timer_callback+0x1e0>)
  51184a:	e772      	.short	0xe772
  51184c:	d206      	bcs.n	51185c <mesh_sensor_publish_timer_callback+0x178>
  51184e:	68e1      	.short	0x68e1
  511850:	428a      	cmp	r2, r1
  511852:	d901      	.short	0xd901
  511854:	428b      	cmp	r3, r1
  511856:	d901      	.short	0xd901
  511858:	4a1b      	ldr	r2, [pc, #108]	; (5118c8 <mesh_sensor_publish_timer_callback+0x1e4>)
  51185a:	e76a      	.short	0xe76a
  51185c:	69ab      	ldr	r3, [r5, #24]
  51185e:	2b00      	.short	0x2b00
  511860:	f47f af58 	bne.w	511714 <mesh_sensor_publish_timer_callback+0x30>
  511864:	29006969 	.word	0x29006969
  511868:	f47f af54 	bne.w	511714 <mesh_sensor_publish_timer_callback+0x30>
  51186c:	2010f994 	.word	0x2010f994
  511870:	68e3      	ldr	r3, [r4, #12]
  511872:	429a      	.short	0x429a
  511874:	f43f af4e 	beq.w	511714 <mesh_sensor_publish_timer_callback+0x30>
  511878:	4a14      	ldr	r2, [pc, #80]	; (5118cc <mesh_sensor_publish_timer_callback+0x1e8>)
  51187a:	e75b      	.short	0xe75b
  51187c:	0324      	lsls	r4, r4, #12
  51187e:	0021      	.short	0x0021
  511880:	7fab      	ldrb	r3, [r5, #30]
  511882:	000c      	.short	0x000c
  511884:	09c4      	lsrs	r4, r0, #7
  511886:	0021      	.short	0x0021
  511888:	1c59      	adds	r1, r3, #1
  51188a:	0051      	.short	0x0051
  51188c:	3259      	adds	r2, #89	; 0x59
  51188e:	000d      	.short	0x000d
  511890:	1511      	asrs	r1, r2, #20
  511892:	0051      	.short	0x0051
  511894:	1c8f      	adds	r7, r1, #2
  511896:	0051      	.short	0x0051
  511898:	1ca2      	adds	r2, r4, #2
  51189a:	0051      	.short	0x0051
  51189c:	1ccb      	adds	r3, r1, #3
  51189e:	0051      	.short	0x0051
  5118a0:	09cc      	lsrs	r4, r1, #7
  5118a2:	0021      	.short	0x0021
  5118a4:	09c8      	lsrs	r0, r1, #7
  5118a6:	0021      	.short	0x0021
  5118a8:	1d90      	adds	r0, r2, #6
  5118aa:	0051      	.short	0x0051
  5118ac:	0070      	lsls	r0, r6, #1
  5118ae:	0021      	.short	0x0021
  5118b0:	60e1      	str	r1, [r4, #12]
  5118b2:	0052      	.short	0x0052
  5118b4:	1ce4      	adds	r4, r4, #3
  5118b6:	0051      	.short	0x0051
  5118b8:	1cf1      	adds	r1, r6, #3
  5118ba:	0051      	.short	0x0051
  5118bc:	1d11      	adds	r1, r2, #4
  5118be:	0051      	.short	0x0051
  5118c0:	1d20      	adds	r0, r4, #4
  5118c2:	0051      	.short	0x0051
  5118c4:	1d42      	adds	r2, r0, #5
  5118c6:	0051      	.short	0x0051
  5118c8:	1d57      	adds	r7, r2, #5
  5118ca:	0051      	.short	0x0051
  5118cc:	1d70      	adds	r0, r6, #5
  5118ce:	0051      	.short	0x0051

005118d0 <mesh_sensor_presence_detected_timer_callback>:
  5118d0:	2100      	movs	r1, #0
  5118d2:	b510      	.short	0xb510
  5118d4:	4a07      	ldr	r2, [pc, #28]	; (5118f4 <mesh_sensor_presence_detected_timer_callback+0x24>)
  5118d6:	4b08      	.short	0x4b08
  5118d8:	4608      	mov	r0, r1
  5118da:	4798      	.short	0x4798
  5118dc:	4b07      	ldr	r3, [pc, #28]	; (5118fc <mesh_sensor_presence_detected_timer_callback+0x2c>)
  5118de:	2200      	.short	0x2200
  5118e0:	609a      	str	r2, [r3, #8]
  5118e2:	4b07      	.short	0x4b07
  5118e4:	f8d3 3037 	ldr.w	r3, [r3, #55]	; 0x37
  5118e8:	4010e8bd 	.word	0x4010e8bd
  5118ec:	6958      	ldr	r0, [r3, #20]
  5118ee:	4b05      	.short	0x4b05
  5118f0:	4718      	bx	r3
  5118f2:	bf00      	.short	0xbf00
  5118f4:	1daa      	adds	r2, r5, #6
  5118f6:	0051      	.short	0x0051
  5118f8:	3259      	adds	r2, #89	; 0x59
  5118fa:	000d      	.short	0x000d
  5118fc:	0324      	lsls	r4, r4, #12
  5118fe:	0021      	.short	0x0021
  511900:	0070      	lsls	r0, r6, #1
  511902:	0021      	.short	0x0021
  511904:	16e5      	asrs	r5, r4, #27
  511906:	0051      	.short	0x0051

00511908 <mesh_sensor_server_config_change_handler>:
  511908:	e92d 41ff 	stmdb	sp!, {r0, r1, r2, r3, r4, r5, r6, r7, r8, lr}
  51190c:	4698460e 	.word	0x4698460e
  511910:	460b      	mov	r3, r1
  511912:	2100      	.short	0x2100
  511914:	4605      	mov	r5, r0
  511916:	4617      	.short	0x4617
  511918:	4608      	mov	r0, r1
  51191a:	4a2a      	.short	0x4a2a
  51191c:	4c2a      	ldr	r4, [pc, #168]	; (5119c8 <mesh_sensor_server_config_change_handler+0xc0>)
  51191e:	47a0      	.short	0x47a0
  511920:	2e79      	cmp	r6, #121	; 0x79
  511922:	d004      	.short	0xd004
  511924:	2e7f      	cmp	r6, #127	; 0x7f
  511926:	d045      	.short	0xd045
  511928:	b004      	add	sp, #16
  51192a:	e8bd      	.short	0xe8bd
  51192c:	81f0      	strh	r0, [r6, #14]
  51192e:	4b27      	.short	0x4b27
  511930:	4e27      	ldr	r6, [pc, #156]	; (5119d0 <mesh_sensor_server_config_change_handler+0xc8>)
  511932:	f8d3      	.short	0xf8d3
  511934:	3037      	adds	r0, #55	; 0x37
  511936:	ebc5      	.short	0xebc5
  511938:	02c5      	lsls	r5, r0, #11
  51193a:	eb05      	.short	0xeb05
  51193c:	0582      	lsls	r2, r0, #22
  51193e:	441d      	.short	0x441d
  511940:	2100      	movs	r1, #0
  511942:	696d      	.short	0x696d
  511944:	4a23      	ldr	r2, [pc, #140]	; (5119d4 <mesh_sensor_server_config_change_handler+0xcc>)
  511946:	463b      	.short	0x463b
  511948:	4608      	mov	r0, r1
  51194a:	47a0      	.short	0x47a0
  51194c:	2100      	movs	r1, #0
  51194e:	89eb      	.short	0x89eb
  511950:	4a21      	ldr	r2, [pc, #132]	; (5119d8 <mesh_sensor_server_config_change_handler+0xd0>)
  511952:	4608      	.short	0x4608
  511954:	47a0      	blx	r4
  511956:	2100      	.short	0x2100
  511958:	692b      	ldr	r3, [r5, #16]
  51195a:	4a20      	.short	0x4a20
  51195c:	4608      	mov	r0, r1
  51195e:	47a0      	.short	0x47a0
  511960:	2100      	movs	r1, #0
  511962:	69ab      	.short	0x69ab
  511964:	4a1e      	ldr	r2, [pc, #120]	; (5119e0 <mesh_sensor_server_config_change_handler+0xd8>)
  511966:	4608      	.short	0x4608
  511968:	47a0      	blx	r4
  51196a:	2100      	.short	0x2100
  51196c:	696b      	ldr	r3, [r5, #20]
  51196e:	4a1d      	.short	0x4a1d
  511970:	4608      	mov	r0, r1
  511972:	47a0      	.short	0x47a0
  511974:	2100      	movs	r1, #0
  511976:	69eb      	.short	0x69eb
  511978:	4a1b      	ldr	r2, [pc, #108]	; (5119e8 <mesh_sensor_server_config_change_handler+0xe0>)
  51197a:	4608      	.short	0x4608
  51197c:	47a0      	blx	r4
  51197e:	2100      	movs	r1, #0
  511980:	6a2b      	ldr	r3, [r5, #32]
  511982:	4a1a      	ldr	r2, [pc, #104]	; (5119ec <mesh_sensor_server_config_change_handler+0xe4>)
  511984:	4608      	mov	r0, r1
  511986:	47a0      	.short	0x47a0
  511988:	2100      	movs	r1, #0
  51198a:	6a6b      	.short	0x6a6b
  51198c:	4a18      	ldr	r2, [pc, #96]	; (5119f0 <mesh_sensor_server_config_change_handler+0xe8>)
  51198e:	4608      	mov	r0, r1
  511990:	f10d47a0 	.word	0xf10d47a0
  511994:	030e      	lsls	r6, r1, #12
  511996:	f105      	.short	0xf105
  511998:	020e      	lsls	r6, r1, #8
  51199a:	211a      	.short	0x211a
  51199c:	f44f 7000 	mov.w	r0, #512	; 0x200
  5119a0:	210047b0 	.word	0x210047b0
  5119a4:	b2c3      	uxtb	r3, r0
  5119a6:	4a13      	.short	0x4a13
  5119a8:	4608      	mov	r0, r1
  5119aa:	47a0      	.short	0x47a0
  5119ac:	4628      	mov	r0, r5
  5119ae:	4b12      	.short	0x4b12
  5119b0:	4798      	blx	r3
  5119b2:	e7b9      	.short	0xe7b9
  5119b4:	2100      	movs	r1, #0
  5119b6:	f8cd 8000 	str.w	r8, [sp]
  5119ba:	463b      	.short	0x463b
  5119bc:	4a0f      	ldr	r2, [pc, #60]	; (5119fc <mesh_sensor_server_config_change_handler+0xf4>)
  5119be:	4608      	.short	0x4608
  5119c0:	47a0      	blx	r4
  5119c2:	e7b1      	.short	0xe7b1
  5119c4:	1dc5      	adds	r5, r0, #7
  5119c6:	0051      	.short	0x0051
  5119c8:	3259      	adds	r2, #89	; 0x59
  5119ca:	000d      	.short	0x000d
  5119cc:	0070      	lsls	r0, r6, #1
  5119ce:	0021      	movs	r1, r4
  5119d0:	0008a597 	.word	0x0008a597
  5119d4:	1df7      	adds	r7, r6, #7
  5119d6:	0051      	.short	0x0051
  5119d8:	1e19      	subs	r1, r3, #0
  5119da:	0051      	.short	0x0051
  5119dc:	1e39      	subs	r1, r7, #0
  5119de:	0051      	.short	0x0051
  5119e0:	1e55      	subs	r5, r2, #1
  5119e2:	0051      	.short	0x0051
  5119e4:	1e6a      	subs	r2, r5, #1
  5119e6:	0051      	.short	0x0051
  5119e8:	1e81      	subs	r1, r0, #2
  5119ea:	0051      	lsls	r1, r2, #1
  5119ec:	00511e92 	.word	0x00511e92
  5119f0:	1ea7      	subs	r7, r4, #2
  5119f2:	0051      	.short	0x0051
  5119f4:	1ebd      	subs	r5, r7, #2
  5119f6:	0051      	.short	0x0051
  5119f8:	1511      	asrs	r1, r2, #20
  5119fa:	0051      	lsls	r1, r2, #1
  5119fc:	00511ece 	.word	0x00511ece

00511a00 <mesh_app_notify_period_set>:
  511a00:	b570      	push	{r4, r5, r6, lr}
  511a02:	460e      	mov	r6, r1
  511a04:	4601      	mov	r1, r0
  511a06:	b998      	.short	0xb998
  511a08:	f64f 75ff 	movw	r5, #65535	; 0xffff
  511a0c:	d10f42ae 	.word	0xd10f42ae
  511a10:	f5b2 5f88 	cmp.w	r2, #4352	; 0x1100
  511a14:	4a07d10b 	.word	0x4a07d10b
  511a18:	4c07      	ldr	r4, [pc, #28]	; (511a38 <mesh_app_notify_period_set+0x38>)
  511a1a:	6013      	.short	0x6013
  511a1c:	4a07      	ldr	r2, [pc, #28]	; (511a3c <mesh_app_notify_period_set+0x3c>)
  511a1e:	47a0      	.short	0x47a0
  511a20:	4b07      	ldr	r3, [pc, #28]	; (511a40 <mesh_app_notify_period_set+0x40>)
  511a22:	f8d3      	.short	0xf8d3
  511a24:	3037      	adds	r0, #55	; 0x37
  511a26:	6958      	.short	0x6958
  511a28:	4b06      	ldr	r3, [pc, #24]	; (511a44 <mesh_app_notify_period_set+0x44>)
  511a2a:	4798      	.short	0x4798
  511a2c:	2001      	movs	r0, #1
  511a2e:	bd70      	.short	0xbd70
  511a30:	2000      	movs	r0, #0
  511a32:	e7fc      	.short	0xe7fc
  511a34:	0324      	lsls	r4, r4, #12
  511a36:	0021      	.short	0x0021
  511a38:	3259      	adds	r2, #89	; 0x59
  511a3a:	000d      	.short	0x000d
  511a3c:	1f06      	subs	r6, r0, #4
  511a3e:	0051      	.short	0x0051
  511a40:	0070      	lsls	r0, r6, #1
  511a42:	0021      	.short	0x0021
  511a44:	1511      	asrs	r1, r2, #20
  511a46:	0051      	.short	0x0051

00511a48 <mesh_sensor_server_report_handler>:
  511a48:	e92d 41f0 	stmdb	sp!, {r4, r5, r6, r7, r8, lr}
  511a4c:	4698      	mov	r8, r3
  511a4e:	4b16      	.short	0x4b16
  511a50:	4d16      	ldr	r5, [pc, #88]	; (511aac <mesh_sensor_server_report_handler+0x64>)
  511a52:	460f      	.short	0x460f
  511a54:	4616      	mov	r6, r2
  511a56:	2100      	.short	0x2100
  511a58:	8812      	ldrh	r2, [r2, #0]
  511a5a:	f8a3      	.short	0xf8a3
  511a5c:	204c      	movs	r0, #76	; 0x4c
  511a5e:	4604      	mov	r4, r0
  511a60:	4a134603 	.word	0x4a134603
  511a64:	4608      	mov	r0, r1
  511a66:	47a8      	.short	0x47a8
  511a68:	2c72      	cmp	r4, #114	; 0x72
  511a6a:	d01a      	beq.n	511aa2 <mesh_sensor_server_report_handler+0x5a>
  511a6c:	d0182c74 	.word	0xd0182c74
  511a70:	2c70      	cmp	r4, #112	; 0x70
  511a72:	d10f      	.short	0xd10f
  511a74:	4b0f      	ldr	r3, [pc, #60]	; (511ab4 <mesh_sensor_server_report_handler+0x6c>)
  511a76:	689a      	.short	0x689a
  511a78:	741a      	strb	r2, [r3, #16]
  511a7a:	4a0f      	.short	0x4a0f
  511a7c:	8812      	ldrh	r2, [r2, #0]
  511a7e:	745a      	.short	0x745a
  511a80:	4a0e      	ldr	r2, [pc, #56]	; (511abc <mesh_sensor_server_report_handler+0x74>)
  511a82:	6812      	.short	0x6812
  511a84:	749a      	strb	r2, [r3, #18]
  511a86:	8831      	.short	0x8831
  511a88:	4b0d      	ldr	r3, [pc, #52]	; (511ac0 <mesh_sensor_server_report_handler+0x78>)
  511a8a:	4642      	.short	0x4642
  511a8c:	4638      	mov	r0, r7
  511a8e:	e8bd      	.short	0xe8bd
  511a90:	41f0      	rors	r0, r6
  511a92:	4718      	.short	0x4718
  511a94:	2100      	movs	r1, #0
  511a96:	462b      	.short	0x462b
  511a98:	4a0a      	ldr	r2, [pc, #40]	; (511ac4 <mesh_sensor_server_report_handler+0x7c>)
  511a9a:	4608      	.short	0x4608
  511a9c:	e8bd 41f0 	ldmia.w	sp!, {r4, r5, r6, r7, r8, lr}
  511aa0:	e8bd4718 	.word	0xe8bd4718
  511aa4:	81f0      	strh	r0, [r6, #14]
  511aa6:	bf00      	.short	0xbf00
  511aa8:	0070      	lsls	r0, r6, #1
  511aaa:	0021      	.short	0x0021
  511aac:	3259      	adds	r2, #89	; 0x59
  511aae:	000d      	.short	0x000d
  511ab0:	1f24      	subs	r4, r4, #4
  511ab2:	0051      	.short	0x0051
  511ab4:	0324      	lsls	r4, r4, #12
  511ab6:	0021      	.short	0x0021
  511ab8:	09cc      	lsrs	r4, r1, #7
  511aba:	0021      	.short	0x0021
  511abc:	09c8      	lsrs	r0, r1, #7
  511abe:	0021      	.short	0x0021
  511ac0:	60e1      	str	r1, [r4, #12]
  511ac2:	0052      	.short	0x0052
  511ac4:	1f4f      	subs	r7, r1, #5
  511ac6:	0051      	lsls	r1, r2, #1

00511ac8 <e93196_int_proc>:
  511ac8:	460cb510 	.word	0x460cb510
  511acc:	2100      	movs	r1, #0
  511ace:	4a0c      	.short	0x4a0c
  511ad0:	4b0c      	ldr	r3, [pc, #48]	; (511b04 <e93196_int_proc+0x3c>)
  511ad2:	4608      	.short	0x4608
  511ad4:	4798      	blx	r3
  511ad6:	4620      	.short	0x4620
  511ad8:	4b0b      	ldr	r3, [pc, #44]	; (511b08 <e93196_int_proc+0x40>)
  511ada:	4798      	.short	0x4798
  511adc:	4b0b      	ldr	r3, [pc, #44]	; (511b0c <e93196_int_proc+0x44>)
  511ade:	480c      	.short	0x480c
  511ae0:	210e      	movs	r1, #14
  511ae2:	4798      	.short	0x4798
  511ae4:	4b0b      	ldr	r3, [pc, #44]	; (511b14 <e93196_int_proc+0x4c>)
  511ae6:	689a      	.short	0x689a
  511ae8:	b94a      	cbnz	r2, 511afe <e93196_int_proc+0x36>
  511aea:	2201      	movs	r2, #1
  511aec:	4b0a609a 	.word	0x4b0a609a
  511af0:	f8d3 3037 	ldr.w	r3, [r3, #55]	; 0x37
  511af4:	4010e8bd 	.word	0x4010e8bd
  511af8:	6958      	ldr	r0, [r3, #20]
  511afa:	4b08      	.short	0x4b08
  511afc:	4718      	bx	r3
  511afe:	bd10      	.short	0xbd10
  511b00:	1f58      	subs	r0, r3, #5
  511b02:	0051      	.short	0x0051
  511b04:	3259      	adds	r2, #89	; 0x59
  511b06:	000d      	.short	0x000d
  511b08:	2965      	cmp	r1, #101	; 0x65
  511b0a:	0051      	.short	0x0051
  511b0c:	647b      	str	r3, [r7, #68]	; 0x44
  511b0e:	0000      	.short	0x0000
  511b10:	09d0      	lsrs	r0, r2, #7
  511b12:	0021      	.short	0x0021
  511b14:	0324      	lsls	r4, r4, #12
  511b16:	0021      	movs	r1, r4
  511b18:	00210070 	.word	0x00210070
  511b1c:	16e5      	asrs	r5, r4, #27
  511b1e:	0051      	.short	0x0051

00511b20 <chang_sensor_mode>:
  511b20:	4b08      	ldr	r3, [pc, #32]	; (511b44 <chang_sensor_mode+0x24>)
  511b22:	f893      	.short	0xf893
  511b24:	204e      	movs	r0, #78	; 0x4e
  511b26:	2a01      	.short	0x2a01
  511b28:	d103      	bne.n	511b32 <chang_sensor_mode+0x12>
  511b2a:	2202      	.short	0x2202
  511b2c:	f883 204e 	strb.w	r2, [r3, #78]	; 0x4e
  511b30:	2a024770 	.word	0x2a024770
  511b34:	d101      	bne.n	511b3a <chang_sensor_mode+0x1a>
  511b36:	2204      	.short	0x2204
  511b38:	e7f8      	b.n	511b2c <chang_sensor_mode+0xc>
  511b3a:	2a04      	.short	0x2a04
  511b3c:	bf0c      	ite	eq
  511b3e:	2207      	.short	0x2207
  511b40:	2201      	movs	r2, #1
  511b42:	e7f3      	.short	0xe7f3
  511b44:	0070      	lsls	r0, r6, #1
  511b46:	0021      	.short	0x0021

00511b48 <mesh_sensor_get_temperature_8>:
  511b48:	b508      	push	{r3, lr}
  511b4a:	4b0a      	.short	0x4b0a
  511b4c:	4798      	blx	r3	; unpredictable branch in IT block

  511b4e:	b200      	.short	0xb200
  511b50:	f510 5fc8 	cmn.w	r0, #6400	; 0x1900
  511b54:	f641db08 	.word	0xf641db08
  511b58:	03cd      	lsls	r5, r1, #15
  511b5a:	4298      	.short	0x4298
  511b5c:	dc07      	bgt.n	511b6e <mesh_sensor_get_temperature_8+0x26>
  511b5e:	2332      	.short	0x2332
  511b60:	fb90 f0f3 	sdiv	r0, r0, r3
  511b64:	bd08b240 	.word	0xbd08b240
  511b68:	f06f 007f 	mvn.w	r0, #127	; 0x7f
  511b6c:	207fe7fb 	.word	0x207fe7fb
  511b70:	e7f9      	b.n	511b66 <mesh_sensor_get_temperature_8+0x1e>	; unpredictable branch in IT block

  511b72:	bf00      	nopeq
  511b74:	005128a5 	.word	0x005128a5

00511b78 <timer_ms_callback>:
  511b78:	b570      	push	{r4, r5, r6, lr}
  511b7a:	4e22      	.short	0x4e22
  511b7c:	f896 404e 	ldrb.w	r4, [r6, #78]	; 0x4e
  511b80:	0401f014 	.word	0x0401f014
  511b84:	d010      	beq.n	511ba8 <timer_ms_callback+0x30>
  511b86:	4b20      	.short	0x4b20
  511b88:	4798      	blx	r3	; unpredictable branch in IT block

  511b8a:	4b20      	.short	0x4b20
  511b8c:	8018      	strh	r0, [r3, #0]
  511b8e:	4b20      	.short	0x4b20
  511b90:	4798      	blx	r3	; unpredictable branch in IT block

  511b92:	f6a0      	.short	0xf6a0
  511b94:	245a      	movs	r4, #90	; 0x5a
  511b96:	b224      	.short	0xb224
  511b98:	2004      	movs	r0, #4
  511b9a:	fb94      	.short	0xfb94
  511b9c:	f4f0 ea24 	blx	201fe8 <afhHssiTaskStorage+0x30>	; unpredictable branch in IT block

  511ba0:	2c6474e4 	.word	0x2c6474e4
  511ba4:	bfa8      	it	ge
  511ba6:	2464      	.short	0x2464
  511ba8:	f896 304e 	ldrb.w	r3, [r6, #78]	; 0x4e
  511bac:	d413079b 	.word	0xd413079b
  511bb0:	2100      	movs	r1, #0
  511bb2:	f896      	.short	0xf896
  511bb4:	204e      	movs	r0, #78	; 0x4e
  511bb6:	f012 0204 	andsge.w	r2, r2, #4
  511bba:	d007      	beq.n	511bcc <timer_ms_callback+0x54>
  511bbc:	7b1a4b15 	.word	0x7b1a4b15
  511bc0:	eb02 0282 	add.w	r2, r2, r2, lsl #2
  511bc4:	0282eb02 	.word	0x0282eb02
  511bc8:	0092      	lsls	r2, r2, #2
  511bca:	b2d2      	.short	0xb2d2
  511bcc:	b2e0      	uxtb	r0, r4
  511bce:	b2c9      	.short	0xb2c9
  511bd0:	4b11      	ldr	r3, [pc, #68]	; (511c18 <timer_ms_callback+0xa0>)
  511bd2:	e8bd      	.short	0xe8bd
  511bd4:	4070      	eors	r0, r6
  511bd6:	4718      	.short	0x4718
  511bd8:	4b10      	ldr	r3, [pc, #64]	; (511c1c <timer_ms_callback+0xa4>)
  511bda:	4798      	.short	0x4798
  511bdc:	4b10      	ldr	r3, [pc, #64]	; (511c20 <timer_ms_callback+0xa8>)
  511bde:	4605      	.short	0x4605
  511be0:	4798      	blx	r3
  511be2:	4910      	.short	0x4910
  511be4:	4b10      	ldr	r3, [pc, #64]	; (511c28 <timer_ms_callback+0xb0>)
  511be6:	4798      	.short	0x4798
  511be8:	4b10      	ldr	r3, [pc, #64]	; (511c2c <timer_ms_callback+0xb4>)
  511bea:	4798      	.short	0x4798
  511bec:	4b10      	ldr	r3, [pc, #64]	; (511c30 <timer_ms_callback+0xb8>)
  511bee:	f44f      	.short	0xf44f
  511bf0:	7148      	strb	r0, [r1, #5]
  511bf2:	fbb5      	.short	0xfbb5
  511bf4:	f1f1 2964 			; <UNDEFINED> instruction: 0xf1f12964
  511bf8:	d8d96018 	.word	0xd8d96018
  511bfc:	f1c1 0164 	rsb	r1, r1, #100	; 0x64
  511c00:	bf00e7d7 	.word	0xbf00e7d7
  511c04:	0070      	lsls	r0, r6, #1
  511c06:	0021      	.short	0x0021
  511c08:	1b49      	subs	r1, r1, r5
  511c0a:	0051      	.short	0x0051
  511c0c:	09cc      	lsrs	r4, r1, #7
  511c0e:	0021      	.short	0x0021
  511c10:	28a5      	cmp	r0, #165	; 0xa5
  511c12:	0051      	.short	0x0051
  511c14:	0324      	lsls	r4, r4, #12
  511c16:	0021      	.short	0x0021
  511c18:	61fd      	str	r5, [r7, #28]
  511c1a:	0051      	.short	0x0051
  511c1c:	60e9      	str	r1, [r5, #12]
  511c1e:	0051      	.short	0x0051
  511c20:	250d      	movs	r5, #13
  511c22:	0051      	.short	0x0051
  511c24:	4000      	ands	r0, r0
  511c26:	461c      	.short	0x461c
  511c28:	2725      	movs	r7, #37	; 0x25
  511c2a:	0051      	.short	0x0051
  511c2c:	285d      	cmp	r0, #93	; 0x5d
  511c2e:	0051      	.short	0x0051
  511c30:	09c8      	lsrs	r0, r1, #7
  511c32:	0021      	.short	0x0021
  511c34:	6573      	str	r3, [r6, #84]	; 0x54
  511c36:	736e      	.short	0x736e
  511c38:	726f      	strb	r7, [r5, #9]
  511c3a:	6d20      	.short	0x6d20
  511c3c:	6e69      	ldr	r1, [r5, #100]	; 0x64
  511c3e:	6920      	.short	0x6920
  511c40:	746e      	strb	r6, [r5, #17]
  511c42:	7265      	.short	0x7265
  511c44:	6176      	str	r6, [r6, #20]
  511c46:	3a6c      	.short	0x3a6c
  511c48:	6425      	str	r5, [r4, #64]	; 0x40
  511c4a:	000a      	.short	0x000a
  511c4c:	655a      	str	r2, [r3, #84]	; 0x54
  511c4e:	696e      	ldr	r6, [r5, #20]
  511c50:	6e6f7274 	.word	0x6e6f7274
  511c54:	4920      	ldr	r1, [pc, #128]	; (511cd8 <timer_ms_callback+0x160>)
  511c56:	546f      	.short	0x546f
  511c58:	7400      	strb	r0, [r0, #16]
  511c5a:	6d69      	.short	0x6d69
  511c5c:	2065      	movs	r0, #101	; 0x65
  511c5e:	6973      	.short	0x6973
  511c60:	636e      	str	r6, [r5, #52]	; 0x34
  511c62:	2065      	.short	0x2065
  511c64:	616c      	str	r4, [r5, #20]
  511c66:	7473      	.short	0x7473
  511c68:	7020      	strb	r0, [r4, #0]
  511c6a:	6275      	.short	0x6275
  511c6c:	253a      	movs	r5, #58	; 0x3a
  511c6e:	2064      	.short	0x2064
  511c70:	656c      	str	r4, [r5, #84]	; 0x54
  511c72:	7373      	.short	0x7373
  511c74:	7420      	strb	r0, [r4, #16]
  511c76:	6568      	.short	0x6568
  511c78:	206e      	movs	r0, #110	; 0x6e
  511c7a:	6163      	.short	0x6163
  511c7c:	6564      	str	r4, [r4, #84]	; 0x54
  511c7e:	636e      	.short	0x636e
  511c80:	2065      	movs	r0, #101	; 0x65
  511c82:	6e69      	.short	0x6e69
  511c84:	6574      	str	r4, [r6, #84]	; 0x54
  511c86:	7672      	.short	0x7672
  511c88:	6c61      	ldr	r1, [r4, #68]	; 0x44
  511c8a:	253a      	.short	0x253a
  511c8c:	0a64      	lsrs	r4, r4, #9
  511c8e:	5000      	.short	0x5000
  511c90:	6275      	str	r5, [r6, #36]	; 0x24
  511c92:	6e20      	ldr	r0, [r4, #96]	; 0x60
  511c94:	65646565 	.word	0x65646565
  511c98:	2064      	movs	r0, #100	; 0x64
  511c9a:	6570      	.short	0x6570
  511c9c:	6972      	ldr	r2, [r6, #20]
  511c9e:	646f      	.short	0x646f
  511ca0:	000a      	movs	r2, r1
  511ca2:	614e      	.short	0x614e
  511ca4:	6974      	ldr	r4, [r6, #20]
  511ca6:	6576      	.short	0x6576
  511ca8:	6320      	str	r0, [r4, #48]	; 0x30
  511caa:	7275      	.short	0x7275
  511cac:	7620      	strb	r0, [r4, #24]
  511cae:	6c61      	.short	0x6c61
  511cb0:	6575      	str	r5, [r6, #84]	; 0x54
  511cb2:	253a      	.short	0x253a
  511cb4:	2064      	movs	r0, #100	; 0x64
  511cb6:	6573      	.short	0x6573
  511cb8:	746e      	strb	r6, [r5, #17]
  511cba:	253a      	.short	0x253a
  511cbc:	2064      	movs	r0, #100	; 0x64
  511cbe:	6564      	.short	0x6564
  511cc0:	746c      	strb	r4, [r5, #17]
  511cc2:	3a61      	.short	0x3a61
  511cc4:	6425      	str	r5, [r4, #64]	; 0x40
  511cc6:	252f      	.short	0x252f
  511cc8:	0a64      	lsrs	r4, r4, #9
  511cca:	5000      	.short	0x5000
  511ccc:	6275      	str	r5, [r6, #36]	; 0x24
  511cce:	6e20      	.short	0x6e20
  511cd0:	6565      	str	r5, [r4, #84]	; 0x54
  511cd2:	6564      	.short	0x6564
  511cd4:	2064      	movs	r0, #100	; 0x64
  511cd6:	616e      	.short	0x616e
  511cd8:	6974      	ldr	r4, [r6, #20]
  511cda:	6576      	.short	0x6576
  511cdc:	7620      	strb	r0, [r4, #24]
  511cde:	6c61      	.short	0x6c61
  511ce0:	6575      	str	r5, [r6, #84]	; 0x54
  511ce2:	000a      	.short	0x000a
  511ce4:	6544      	str	r4, [r0, #84]	; 0x54
  511ce6:	746c      	.short	0x746c
  511ce8:	2061      	movs	r0, #97	; 0x61
  511cea:	7075      	.short	0x7075
  511cec:	253a      	movs	r5, #58	; 0x3a
  511cee:	0a64      	.short	0x0a64
  511cf0:	5000      	str	r0, [r0, r0]
  511cf2:	6275      	.short	0x6275
  511cf4:	6e20      	ldr	r0, [r4, #96]	; 0x60
  511cf6:	6565      	.short	0x6565
  511cf8:	6564      	str	r4, [r4, #84]	; 0x54
  511cfa:	2064      	.short	0x2064
  511cfc:	63726570 	.word	0x63726570
  511d00:	6e65      	ldr	r5, [r4, #100]	; 0x64
  511d02:	2074      	.short	0x2074
  511d04:	6564      	str	r4, [r4, #84]	; 0x54
  511d06:	746c      	.short	0x746c
  511d08:	2061      	movs	r0, #97	; 0x61
  511d0a:	7075      	.short	0x7075
  511d0c:	253a      	movs	r5, #58	; 0x3a
  511d0e:	0a64      	.short	0x0a64
  511d10:	4400      	add	r0, r0
  511d12:	6c65      	.short	0x6c65
  511d14:	6174      	str	r4, [r6, #20]
  511d16:	6420      	.short	0x6420
  511d18:	776f      	strb	r7, [r5, #29]
  511d1a:	3a6e      	.short	0x3a6e
  511d1c:	6425      	str	r5, [r4, #64]	; 0x40
  511d1e:	000a      	.short	0x000a
  511d20:	7550      	strb	r0, [r2, #21]
  511d22:	2062      	.short	0x2062
  511d24:	656e      	str	r6, [r5, #84]	; 0x54
  511d26:	6465      	.short	0x6465
  511d28:	6465      	str	r5, [r4, #68]	; 0x44
  511d2a:	7020      	.short	0x7020
  511d2c:	7265      	strb	r5, [r4, #9]
  511d2e:	6563      	.short	0x6563
  511d30:	746e      	strb	r6, [r5, #17]
  511d32:	6420      	.short	0x6420
  511d34:	6c65      	ldr	r5, [r4, #68]	; 0x44
  511d36:	6174      	.short	0x6174
  511d38:	6420      	str	r0, [r4, #64]	; 0x40
  511d3a:	776f      	.short	0x776f
  511d3c:	3a6e      	subs	r2, #110	; 0x6e
  511d3e:	6425      	.short	0x6425
  511d40:	000a      	movs	r2, r1
  511d42:	7550      	.short	0x7550
  511d44:	2062      	movs	r0, #98	; 0x62
  511d46:	656e      	.short	0x656e
  511d48:	6465      	str	r5, [r4, #68]	; 0x44
  511d4a:	6465      	.short	0x6465
  511d4c:	6920      	ldr	r0, [r4, #16]
  511d4e:	206e      	.short	0x206e
  511d50:	6172      	str	r2, [r6, #20]
  511d52:	676e      	.short	0x676e
  511d54:	0a65      	lsrs	r5, r4, #9
  511d56:	5000      	.short	0x5000
  511d58:	6275      	str	r5, [r6, #36]	; 0x24
  511d5a:	6e20      	.short	0x6e20
  511d5c:	6565      	str	r5, [r4, #84]	; 0x54
  511d5e:	6564      	.short	0x6564
  511d60:	2064      	movs	r0, #100	; 0x64
  511d62:	756f      	.short	0x756f
  511d64:	2074      	movs	r0, #116	; 0x74
  511d66:	666f      	.short	0x666f
  511d68:	7220      	strb	r0, [r4, #8]
  511d6a:	6e61      	.short	0x6e61
  511d6c:	6567      	str	r7, [r4, #84]	; 0x54
  511d6e:	000a      	.short	0x000a
  511d70:	7550      	strb	r0, [r2, #21]
  511d72:	2062      	movs	r0, #98	; 0x62
  511d74:	6465656e 	.word	0x6465656e
  511d78:	6465      	str	r5, [r4, #68]	; 0x44
  511d7a:	6e20      	.short	0x6e20
  511d7c:	7765      	strb	r5, [r4, #29]
  511d7e:	7620      	.short	0x7620
  511d80:	6c61      	ldr	r1, [r4, #68]	; 0x44
  511d82:	6575      	.short	0x6575
  511d84:	6e20      	ldr	r0, [r4, #96]	; 0x60
  511d86:	206f      	.short	0x206f
  511d88:	6564      	str	r4, [r4, #84]	; 0x54
  511d8a:	746c      	.short	0x746c
  511d8c:	7361      	strb	r1, [r4, #13]
  511d8e:	000a      	.short	0x000a
  511d90:	2a2a      	cmp	r2, #42	; 0x2a
  511d92:	202a      	.short	0x202a
  511d94:	7550      	strb	r0, [r2, #21]
  511d96:	2062      	.short	0x2062
  511d98:	6176      	str	r6, [r6, #20]
  511d9a:	756c      	.short	0x756c
  511d9c:	3a65      	subs	r2, #101	; 0x65
  511d9e:	6425      	.short	0x6425
  511da0:	7420      	strb	r0, [r4, #16]
  511da2:	6d69      	.short	0x6d69
  511da4:	3a65      	subs	r2, #101	; 0x65
  511da6:	6425      	.short	0x6425
  511da8:	000a      	movs	r2, r1
  511daa:	7270      	.short	0x7270
  511dac:	7365      	strb	r5, [r4, #13]
  511dae:	6e65      	.short	0x6e65
  511db0:	6563      	str	r3, [r4, #84]	; 0x54
  511db2:	6420      	.short	0x6420
  511db4:	7465      	strb	r5, [r4, #17]
  511db6:	6365      	.short	0x6365
  511db8:	6574      	str	r4, [r6, #84]	; 0x54
  511dba:	2064      	.short	0x2064
  511dbc:	6974      	ldr	r4, [r6, #20]
  511dbe:	656d      	.short	0x656d
  511dc0:	756f      	strb	r7, [r5, #21]
  511dc2:	0a74      	.short	0x0a74
  511dc4:	6d00      	ldr	r0, [r0, #80]	; 0x50
  511dc6:	7365      	.short	0x7365
  511dc8:	5f68      	ldrsh	r0, [r5, r5]
  511dca:	6573      	.short	0x6573
  511dcc:	736e      	strb	r6, [r5, #13]
  511dce:	726f      	.short	0x726f
  511dd0:	735f      	strb	r7, [r3, #13]
  511dd2:	7265      	.short	0x7265
  511dd4:	6576      	str	r6, [r6, #84]	; 0x54
  511dd6:	5f72      	.short	0x5f72
  511dd8:	6f63      	ldr	r3, [r4, #116]	; 0x74
  511dda:	666e      	.short	0x666e
  511ddc:	6769      	str	r1, [r5, #116]	; 0x74
  511dde:	635f      	.short	0x635f
  511de0:	6168      	str	r0, [r5, #20]
  511de2:	676e      	.short	0x676e
  511de4:	5f65      	ldrsh	r5, [r4, r5]
  511de6:	6168      	.short	0x6168
  511de8:	646e      	str	r6, [r5, #68]	; 0x44
  511dea:	656c      	.short	0x656c
  511dec:	2072      	movs	r0, #114	; 0x72
  511dee:	736d      	.short	0x736d
  511df0:	3a67      	subs	r2, #103	; 0x67
  511df2:	2520      	.short	0x2520
  511df4:	0a64      	lsrs	r4, r4, #9
  511df6:	6300      	.short	0x6300
  511df8:	6461      	str	r1, [r4, #68]	; 0x44
  511dfa:	6e65      	.short	0x6e65
  511dfc:	6563      	str	r3, [r4, #84]	; 0x54
  511dfe:	6320      	.short	0x6320
  511e00:	6168      	str	r0, [r5, #20]
  511e02:	676e      	.short	0x676e
  511e04:	6465      	str	r5, [r4, #68]	; 0x44
  511e06:	7020      	.short	0x7020
  511e08:	6f72      	ldr	r2, [r6, #116]	; 0x74
  511e0a:	6570      	.short	0x6570
  511e0c:	7472      	strb	r2, [r6, #17]
  511e0e:	2079      	.short	0x2079
  511e10:	6469      	str	r1, [r5, #68]	; 0x44
  511e12:	253a      	.short	0x253a
  511e14:	3430      	adds	r4, #48	; 0x30
  511e16:	0a78      	.short	0x0a78
  511e18:	4600      	mov	r0, r0
  511e1a:	7361      	.short	0x7361
  511e1c:	2074      	movs	r0, #116	; 0x74
  511e1e:	6163      	.short	0x6163
  511e20:	6564      	str	r4, [r4, #84]	; 0x54
  511e22:	636e      	str	r6, [r5, #52]	; 0x34
  511e24:	65702065 	.word	0x65702065
  511e28:	6972      	ldr	r2, [r6, #20]
  511e2a:	646f      	.short	0x646f
  511e2c:	6420      	str	r0, [r4, #64]	; 0x40
  511e2e:	7669      	.short	0x7669
  511e30:	7369      	strb	r1, [r5, #13]
  511e32:	726f      	.short	0x726f
  511e34:	253a      	movs	r5, #58	; 0x3a
  511e36:	0a64      	.short	0x0a64
  511e38:	4900      	ldr	r1, [pc, #0]	; (511e3c <timer_ms_callback+0x2c4>)
  511e3a:	2073      	.short	0x2073
  511e3c:	7274      	strb	r4, [r6, #9]
  511e3e:	6769      	.short	0x6769
  511e40:	6567      	str	r7, [r4, #84]	; 0x54
  511e42:	2072      	.short	0x2072
  511e44:	7974      	ldrb	r4, [r6, #5]
  511e46:	6570      	.short	0x6570
  511e48:	7020      	strb	r0, [r4, #0]
  511e4a:	7265      	.short	0x7265
  511e4c:	6563      	str	r3, [r4, #84]	; 0x54
  511e4e:	746e      	.short	0x746e
  511e50:	253a      	movs	r5, #58	; 0x3a
  511e52:	0a64      	.short	0x0a64
  511e54:	5400      	strb	r0, [r0, r0]
  511e56:	6972      	.short	0x6972
  511e58:	6767      	str	r7, [r4, #116]	; 0x74
  511e5a:	7265      	.short	0x7265
  511e5c:	6420      	str	r0, [r4, #64]	; 0x40
  511e5e:	6c65      	.short	0x6c65
  511e60:	6174      	str	r4, [r6, #20]
  511e62:	7520      	.short	0x7520
  511e64:	3a70      	subs	r2, #112	; 0x70
  511e66:	6425      	.short	0x6425
  511e68:	000a      	movs	r2, r1
  511e6a:	7254      	.short	0x7254
  511e6c:	6769      	str	r1, [r5, #116]	; 0x74
  511e6e:	6567      	.short	0x6567
  511e70:	2072      	movs	r0, #114	; 0x72
  511e72:	6564      	.short	0x6564
  511e74:	746c      	strb	r4, [r5, #17]
  511e76:	2061      	.short	0x2061
  511e78:	6f64      	ldr	r4, [r4, #116]	; 0x74
  511e7a:	6e77      	.short	0x6e77
  511e7c:	253a      	movs	r5, #58	; 0x3a
  511e7e:	0a64      	.short	0x0a64
  511e80:	4d00      	ldr	r5, [pc, #0]	; (511e84 <timer_ms_callback+0x30c>)
  511e82:	6e69      	.short	0x6e69
  511e84:	4920      	ldr	r1, [pc, #128]	; (511f08 <timer_ms_callback+0x390>)
  511e86:	746e      	.short	0x746e
  511e88:	7265      	strb	r5, [r4, #9]
  511e8a:	6176      	.short	0x6176
  511e8c:	3a6c      	subs	r2, #108	; 0x6c
  511e8e:	6425      	.short	0x6425
  511e90:	000a      	movs	r2, r1
  511e92:	6146      	.short	0x6146
  511e94:	7473      	strb	r3, [r6, #17]
  511e96:	6320      	.short	0x6320
  511e98:	6461      	str	r1, [r4, #68]	; 0x44
  511e9a:	6e65      	.short	0x6e65
  511e9c:	6563      	str	r3, [r4, #84]	; 0x54
  511e9e:	6c20      	.short	0x6c20
  511ea0:	776f      	strb	r7, [r5, #29]
  511ea2:	253a      	.short	0x253a
  511ea4:	0a64      	lsrs	r4, r4, #9
  511ea6:	4600      	.short	0x4600
  511ea8:	7361      	strb	r1, [r4, #13]
  511eaa:	2074      	.short	0x2074
  511eac:	6163      	str	r3, [r4, #20]
  511eae:	6564      	.short	0x6564
  511eb0:	636e      	str	r6, [r5, #52]	; 0x34
  511eb2:	2065      	.short	0x2065
  511eb4:	6968      	ldr	r0, [r5, #20]
  511eb6:	6867      	.short	0x6867
  511eb8:	253a      	movs	r5, #58	; 0x3a
  511eba:	0a64      	.short	0x0a64
  511ebc:	4e00      	ldr	r6, [pc, #0]	; (511ec0 <timer_ms_callback+0x348>)
  511ebe:	5256      	.short	0x5256
  511ec0:	4d41      	ldr	r5, [pc, #260]	; (511fc8 <mesh_onoff_client_message_handler+0x50>)
  511ec2:	7720      	.short	0x7720
  511ec4:	6972      	ldr	r2, [r6, #20]
  511ec6:	6574      	.short	0x6574
  511ec8:	203a      	movs	r0, #58	; 0x3a
  511eca:	6425      	.short	0x6425
  511ecc:	000a      	movs	r2, r1
  511ece:	6573      	.short	0x6573
  511ed0:	7474      	strb	r4, [r6, #17]
  511ed2:	6e69      	.short	0x6e69
  511ed4:	7367      	strb	r7, [r4, #13]
  511ed6:	6320      	.short	0x6320
  511ed8:	6168      	str	r0, [r5, #20]
  511eda:	676e      	.short	0x676e
  511edc:	6465      	str	r5, [r4, #68]	; 0x44
  511ede:	7320      	.short	0x7320
  511ee0:	6e65      	ldr	r5, [r4, #100]	; 0x64
  511ee2:	6f73      	.short	0x6f73
  511ee4:	2072      	movs	r0, #114	; 0x72
  511ee6:	7270      	.short	0x7270
  511ee8:	706f      	strb	r7, [r5, #1]
  511eea:	6920      	.short	0x6920
  511eec:	3a64      	subs	r2, #100	; 0x64
  511eee:	7825      	.short	0x7825
  511ef0:	202c      	movs	r0, #44	; 0x2c
  511ef2:	6573      	.short	0x6573
  511ef4:	7474      	strb	r4, [r6, #17]
  511ef6:	6e69      	.short	0x6e69
  511ef8:	2067      	movs	r0, #103	; 0x67
  511efa:	7270      	.short	0x7270
  511efc:	706f      	strb	r7, [r5, #1]
  511efe:	6920      	.short	0x6920
  511f00:	3a64      	subs	r2, #100	; 0x64
  511f02:	7825      	.short	0x7825
  511f04:	000a      	movs	r2, r1
  511f06:	6553      	.short	0x6553
  511f08:	736e      	strb	r6, [r5, #13]
  511f0a:	726f      	.short	0x726f
  511f0c:	6420      	str	r0, [r4, #64]	; 0x40
  511f0e:	7461      	.short	0x7461
  511f10:	2061      	movs	r0, #97	; 0x61
  511f12:	6573      	.short	0x6573
  511f14:	646e      	str	r6, [r5, #68]	; 0x44
  511f16:	7020      	.short	0x7020
  511f18:	7265      	strb	r5, [r4, #9]
  511f1a:	6f69      	.short	0x6f69
  511f1c:	3a64      	subs	r2, #100	; 0x64
  511f1e:	6425      	.short	0x6425
  511f20:	736d      	strb	r5, [r5, #13]
  511f22:	000a      	.short	0x000a
  511f24:	656d      	str	r5, [r5, #84]	; 0x54
  511f26:	6873      	.short	0x6873
  511f28:	735f      	strb	r7, [r3, #13]
  511f2a:	6e65      	.short	0x6e65
  511f2c:	6f73      	ldr	r3, [r6, #116]	; 0x74
  511f2e:	5f72      	.short	0x5f72
  511f30:	6573      	str	r3, [r6, #84]	; 0x54
  511f32:	7672      	.short	0x7672
  511f34:	7265      	strb	r5, [r4, #9]
  511f36:	725f      	.short	0x725f
  511f38:	7065      	strb	r5, [r4, #1]
  511f3a:	726f      	.short	0x726f
  511f3c:	5f74      	ldrsh	r4, [r6, r5]
  511f3e:	6168      	.short	0x6168
  511f40:	646e      	str	r6, [r5, #68]	; 0x44
  511f42:	656c      	.short	0x656c
  511f44:	2072      	movs	r0, #114	; 0x72
  511f46:	736d      	.short	0x736d
  511f48:	3a67      	subs	r2, #103	; 0x67
  511f4a:	2520      	.short	0x2520
  511f4c:	0a64      	lsrs	r4, r4, #9
  511f4e:	7500      	.short	0x7500
  511f50:	6b6e      	ldr	r6, [r5, #52]	; 0x34
  511f52:	6f6e      	.short	0x6f6e
  511f54:	6e77      	ldr	r7, [r6, #100]	; 0x64
  511f56:	000a      	.short	0x000a
  511f58:	7270      	strb	r0, [r6, #9]
  511f5a:	7365      	.short	0x7365
  511f5c:	6e65      	ldr	r5, [r4, #100]	; 0x64
  511f5e:	6563      	.short	0x6563
  511f60:	6420      	str	r0, [r4, #64]	; 0x40
  511f62:	7465      	.short	0x7465
  511f64:	6365      	str	r5, [r4, #52]	; 0x34
  511f66:	6574      	.short	0x6574
  511f68:	0a64      	lsrs	r4, r4, #9
  511f6a:	5300      	strh	r0, [r0, r4]
  511f6c:	616d      	str	r5, [r5, #20]
  511f6e:	7472      	.short	0x7472
  511f70:	5320      	strh	r0, [r4, r4]
  511f72:	6977      	.short	0x6977
  511f74:	6374      	str	r4, [r6, #52]	; 0x34
  511f76:	0068      	.short	0x0068

00511f78 <mesh_onoff_client_message_handler>:
  511f78:	2860      	cmp	r0, #96	; 0x60
  511f7a:	b573      	.short	0xb573
  511f7c:	4603      	mov	r3, r0
  511f7e:	460e      	.short	0x460e
  511f80:	4614      	mov	r4, r2
  511f82:	4d11      	ldr	r5, [pc, #68]	; (511fc8 <mesh_onoff_client_message_handler+0x50>)
  511f84:	d111      	bne.n	511faa <mesh_onoff_client_message_handler+0x32>
  511f86:	7813      	ldrb	r3, [r2, #0]
  511f88:	92016852 	.word	0x92016852
  511f8c:	7862      	ldrb	r2, [r4, #1]
  511f8e:	9200      	str	r2, [sp, #0]
  511f90:	21004a0e 	.word	0x21004a0e
  511f94:	4608      	mov	r0, r1
  511f96:	47a8      	.short	0x47a8
  511f98:	4b0d      	ldr	r3, [pc, #52]	; (511fd0 <mesh_onoff_client_message_handler+0x58>)
  511f9a:	7862      	.short	0x7862
  511f9c:	701a      	strb	r2, [r3, #0]
  511f9e:	4b0d      	.short	0x4b0d
  511fa0:	b0024630 	.word	0xb0024630
  511fa4:	e8bd 4070 	ldmia.w	sp!, {r4, r5, r6, lr}
  511fa8:	280a4718 	.word	0x280a4718
  511fac:	d106      	bne.n	511fbc <mesh_onoff_client_message_handler+0x44>
  511fae:	7813      	.short	0x7813
  511fb0:	6852      	ldr	r2, [r2, #4]
  511fb2:	9201      	.short	0x9201
  511fb4:	7862      	ldrb	r2, [r4, #1]
  511fb6:	9200      	str	r2, [sp, #0]
  511fb8:	4a07      	ldr	r2, [pc, #28]	; (511fd8 <mesh_onoff_client_message_handler+0x60>)
  511fba:	e7ea      	b.n	511f92 <mesh_onoff_client_message_handler+0x1a>
  511fbc:	2100      	movs	r1, #0
  511fbe:	4a07      	ldr	r2, [pc, #28]	; (511fdc <mesh_onoff_client_message_handler+0x64>)
  511fc0:	4608      	mov	r0, r1
  511fc2:	47a8      	blx	r5
  511fc4:	e7eb      	b.n	511f9e <mesh_onoff_client_message_handler+0x26>
  511fc6:	bf00      	nop
  511fc8:	000d3259 	.word	0x000d3259
  511fcc:	00512184 	.word	0x00512184
  511fd0:	00210310 	.word	0x00210310
  511fd4:	00525b41 	.word	0x00525b41
  511fd8:	00512187 	.word	0x00512187
  511fdc:	005121b2 	.word	0x005121b2

00511fe0 <button_interrupt_handler>:
  511fe0:	e92d 47f0 	stmdb	sp!, {r4, r5, r6, r7, r8, r9, sl, lr}
  511fe4:	4608      	mov	r0, r1
  511fe6:	b086      	sub	sp, #24
  511fe8:	4b30      	ldr	r3, [pc, #192]	; (5120ac <button_interrupt_handler+0xcc>)
  511fea:	4f31      	ldr	r7, [pc, #196]	; (5120b0 <button_interrupt_handler+0xd0>)
  511fec:	4688      	mov	r8, r1
  511fee:	4798      	blx	r3
  511ff0:	4b30      	ldr	r3, [pc, #192]	; (5120b4 <button_interrupt_handler+0xd4>)
  511ff2:	4606      	mov	r6, r0
  511ff4:	4798      	blx	r3
  511ff6:	4b30      	ldr	r3, [pc, #192]	; (5120b8 <button_interrupt_handler+0xd8>)
  511ff8:	681a      	ldr	r2, [r3, #0]
  511ffa:	42b2      	cmp	r2, r6
  511ffc:	4681      	mov	r9, r0
  511ffe:	d109      	bne.n	512014 <button_interrupt_handler+0x34>
  512000:	2100      	movs	r1, #0
  512002:	e9cd 2000 	strd	r2, r0, [sp]
  512006:	4643      	mov	r3, r8
  512008:	4a2c      	ldr	r2, [pc, #176]	; (5120bc <button_interrupt_handler+0xdc>)
  51200a:	4608      	mov	r0, r1
  51200c:	47b8      	blx	r7
  51200e:	b006      	add	sp, #24
  512010:	e8bd 87f0 	ldmia.w	sp!, {r4, r5, r6, r7, r8, r9, sl, pc}
  512014:	2100      	movs	r1, #0
  512016:	601e      	str	r6, [r3, #0]
  512018:	4a29      	ldr	r2, [pc, #164]	; (5120c0 <button_interrupt_handler+0xe0>)
  51201a:	e9cd 6000 	strd	r6, r0, [sp]
  51201e:	4643      	mov	r3, r8
  512020:	4608      	mov	r0, r1
  512022:	47b8      	blx	r7
  512024:	b90e      	cbnz	r6, 51202a <button_interrupt_handler+0x4a>
  512026:	4b27      	ldr	r3, [pc, #156]	; (5120c4 <button_interrupt_handler+0xe4>)
  512028:	4798      	blx	r3
  51202a:	4b27      	ldr	r3, [pc, #156]	; (5120c8 <button_interrupt_handler+0xe8>)
  51202c:	68db      	ldr	r3, [r3, #12]
  51202e:	42b3      	cmp	r3, r6
  512030:	4e26      	ldr	r6, [pc, #152]	; (5120cc <button_interrupt_handler+0xec>)
  512032:	d104      	bne.n	51203e <button_interrupt_handler+0x5e>
  512034:	464c      	mov	r4, r9
  512036:	2500      	movs	r5, #0
  512038:	e9c6 4502 	strd	r4, r5, [r6, #8]
  51203c:	e7e7      	b.n	51200e <button_interrupt_handler+0x2e>
  51203e:	68b3      	ldr	r3, [r6, #8]
  512040:	eba9 0403 	sub.w	r4, r9, r3
  512044:	f643 2397 	movw	r3, #14999	; 0x3a97
  512048:	429c      	cmp	r4, r3
  51204a:	d82b      	bhi.n	5120a4 <button_interrupt_handler+0xc4>
  51204c:	2300      	movs	r3, #0
  51204e:	7c30      	ldrb	r0, [r6, #16]
  512050:	4c1f      	ldr	r4, [pc, #124]	; (5120d0 <button_interrupt_handler+0xf0>)
  512052:	9300      	str	r3, [sp, #0]
  512054:	f241 3211 	movw	r2, #4881	; 0x1311
  512058:	f64f 71ff 	movw	r1, #65535	; 0xffff
  51205c:	47a0      	blx	r4
  51205e:	4604      	mov	r4, r0
  512060:	2800      	cmp	r0, #0
  512062:	d0d4      	beq.n	51200e <button_interrupt_handler+0x2e>
  512064:	f9b0 3014 	ldrsh.w	r3, [r0, #20]
  512068:	2b00      	cmp	r3, #0
  51206a:	bfa4      	itt	ge
  51206c:	2301      	movge	r3, #1
  51206e:	f880 3025 	strbge.w	r3, [r0, #37]	; 0x25
  512072:	7833      	ldrb	r3, [r6, #0]
  512074:	2100      	movs	r1, #0
  512076:	f113 33ff 	adds.w	r3, r3, #4294967295
  51207a:	f04f 32ff 	mov.w	r2, #4294967295
  51207e:	bf18      	it	ne
  512080:	2301      	movne	r3, #1
  512082:	9204      	str	r2, [sp, #16]
  512084:	4608      	mov	r0, r1
  512086:	4a13      	ldr	r2, [pc, #76]	; (5120d4 <button_interrupt_handler+0xf4>)
  512088:	f88d 300c 	strb.w	r3, [sp, #12]
  51208c:	f8ad 1014 	strh.w	r1, [sp, #20]
  512090:	47b8      	blx	r7
  512092:	4b11      	ldr	r3, [pc, #68]	; (5120d8 <button_interrupt_handler+0xf8>)
  512094:	a903      	add	r1, sp, #12
  512096:	4620      	mov	r0, r4
  512098:	4798      	blx	r3
  51209a:	7833      	ldrb	r3, [r6, #0]
  51209c:	f083 0301 	eor.w	r3, r3, #1
  5120a0:	7033      	strb	r3, [r6, #0]
  5120a2:	e7b4      	b.n	51200e <button_interrupt_handler+0x2e>
  5120a4:	4b0d      	ldr	r3, [pc, #52]	; (5120dc <button_interrupt_handler+0xfc>)
  5120a6:	4798      	blx	r3
  5120a8:	e7b1      	b.n	51200e <button_interrupt_handler+0x2e>
  5120aa:	bf00      	nop
  5120ac:	00083343 	.word	0x00083343
  5120b0:	000d3259 	.word	0x000d3259
  5120b4:	000c7fab 	.word	0x000c7fab
  5120b8:	00210988 	.word	0x00210988
  5120bc:	005121c6 	.word	0x005121c6
  5120c0:	00512204 	.word	0x00512204
  5120c4:	00511b21 	.word	0x00511b21
  5120c8:	005273e4 	.word	0x005273e4
  5120cc:	00210310 	.word	0x00210310
  5120d0:	00525a75 	.word	0x00525a75
  5120d4:	00512238 	.word	0x00512238
  5120d8:	00525e19 	.word	0x00525e19
  5120dc:	00513d65 	.word	0x00513d65

005120e0 <mesh_switch_init>:
  5120e0:	b570      	push	{r4, r5, r6, lr}
  5120e2:	4b08      	ldr	r3, [pc, #32]	; (512104 <mesh_switch_init+0x24>)
  5120e4:	4d08      	ldr	r5, [pc, #32]	; (512108 <mesh_switch_init+0x28>)
  5120e6:	7418      	strb	r0, [r3, #16]
  5120e8:	4604      	mov	r4, r0
  5120ea:	460e      	mov	r6, r1
  5120ec:	460a      	mov	r2, r1
  5120ee:	4b07      	ldr	r3, [pc, #28]	; (51210c <mesh_switch_init+0x2c>)
  5120f0:	4629      	mov	r1, r5
  5120f2:	4798      	blx	r3
  5120f4:	4632      	mov	r2, r6
  5120f6:	4629      	mov	r1, r5
  5120f8:	4620      	mov	r0, r4
  5120fa:	4b05      	ldr	r3, [pc, #20]	; (512110 <mesh_switch_init+0x30>)
  5120fc:	e8bd 4070 	ldmia.w	sp!, {r4, r5, r6, lr}
  512100:	4718      	bx	r3
  512102:	bf00      	nop
  512104:	00210310 	.word	0x00210310
  512108:	00511f79 	.word	0x00511f79
  51210c:	00525be9 	.word	0x00525be9
  512110:	00525dbd 	.word	0x00525dbd

00512114 <mesh_switch_hardware_init>:
  512114:	b5f7      	push	{r0, r1, r2, r4, r5, r6, r7, lr}
  512116:	2200      	movs	r2, #0
  512118:	4911      	ldr	r1, [pc, #68]	; (512160 <mesh_switch_hardware_init+0x4c>)
  51211a:	4c12      	ldr	r4, [pc, #72]	; (512164 <mesh_switch_hardware_init+0x50>)
  51211c:	4e12      	ldr	r6, [pc, #72]	; (512168 <mesh_switch_hardware_init+0x54>)
  51211e:	230d      	movs	r3, #13
  512120:	4607      	mov	r7, r0
  512122:	4610      	mov	r0, r2
  512124:	47a0      	blx	r4
  512126:	4b11      	ldr	r3, [pc, #68]	; (51216c <mesh_switch_hardware_init+0x58>)
  512128:	689b      	ldr	r3, [r3, #8]
  51212a:	6033      	str	r3, [r6, #0]
  51212c:	2000      	movs	r0, #0
  51212e:	4b10      	ldr	r3, [pc, #64]	; (512170 <mesh_switch_hardware_init+0x5c>)
  512130:	4798      	blx	r3
  512132:	4b10      	ldr	r3, [pc, #64]	; (512174 <mesh_switch_hardware_init+0x60>)
  512134:	4605      	mov	r5, r0
  512136:	201a      	movs	r0, #26
  512138:	4798      	blx	r3
  51213a:	e9cd 5000 	strd	r5, r0, [sp]
  51213e:	2100      	movs	r1, #0
  512140:	4604      	mov	r4, r0
  512142:	6833      	ldr	r3, [r6, #0]
  512144:	4a0c      	ldr	r2, [pc, #48]	; (512178 <mesh_switch_hardware_init+0x64>)
  512146:	4e0d      	ldr	r6, [pc, #52]	; (51217c <mesh_switch_hardware_init+0x68>)
  512148:	4608      	mov	r0, r1
  51214a:	47b0      	blx	r6
  51214c:	42a5      	cmp	r5, r4
  51214e:	d005      	beq.n	51215c <mesh_switch_hardware_init+0x48>
  512150:	4b0b      	ldr	r3, [pc, #44]	; (512180 <mesh_switch_hardware_init+0x6c>)
  512152:	4638      	mov	r0, r7
  512154:	b003      	add	sp, #12
  512156:	e8bd 40f0 	ldmia.w	sp!, {r4, r5, r6, r7, lr}
  51215a:	4718      	bx	r3
  51215c:	b003      	add	sp, #12
  51215e:	bdf0      	pop	{r4, r5, r6, r7, pc}
  512160:	00511fe1 	.word	0x00511fe1
  512164:	0051227d 	.word	0x0051227d
  512168:	00210988 	.word	0x00210988
  51216c:	005273e4 	.word	0x005273e4
  512170:	005122c1 	.word	0x005122c1
  512174:	00083343 	.word	0x00083343
  512178:	0051224d 	.word	0x0051224d
  51217c:	000d3259 	.word	0x000d3259
  512180:	00525c7d 	.word	0x00525c7d
  512184:	6f20636c 	.word	0x6f20636c
  512188:	66666f6e 	.word	0x66666f6e
  51218c:	61747320 	.word	0x61747320
  512190:	20737574 	.word	0x20737574
  512194:	73657270 	.word	0x73657270
  512198:	3a746e65 	.word	0x3a746e65
  51219c:	74206425 	.word	0x74206425
  5121a0:	65677261 	.word	0x65677261
  5121a4:	64253a74 	.word	0x64253a74
  5121a8:	6d697420 	.word	0x6d697420
  5121ac:	64253a65 	.word	0x64253a65
  5121b0:	656d000a 	.word	0x656d000a
  5121b4:	67617373 	.word	0x67617373
  5121b8:	67692065 	.word	0x67692065
  5121bc:	65726f6e 	.word	0x65726f6e
  5121c0:	64253a64 	.word	0x64253a64
  5121c4:	6e69000a 	.word	0x6e69000a
  5121c8:	72726574 	.word	0x72726574
  5121cc:	5f747075 	.word	0x5f747075
  5121d0:	646e6168 	.word	0x646e6168
  5121d4:	3a72656c 	.word	0x3a72656c
  5121d8:	70756420 	.word	0x70756420
  5121dc:	6163696c 	.word	0x6163696c
  5121e0:	70206574 	.word	0x70206574
  5121e4:	253a6e69 	.word	0x253a6e69
  5121e8:	61762064 	.word	0x61762064
  5121ec:	3a65756c 	.word	0x3a65756c
  5121f0:	63206425 	.word	0x63206425
  5121f4:	65727275 	.word	0x65727275
  5121f8:	745f746e 	.word	0x745f746e
  5121fc:	3a656d69 	.word	0x3a656d69
  512200:	000a6425 	.word	0x000a6425
  512204:	65746e69 	.word	0x65746e69
  512208:	70757272 	.word	0x70757272
  51220c:	61685f74 	.word	0x61685f74
  512210:	656c646e 	.word	0x656c646e
  512214:	70203a72 	.word	0x70203a72
  512218:	253a6e69 	.word	0x253a6e69
  51221c:	61762064 	.word	0x61762064
  512220:	3a65756c 	.word	0x3a65756c
  512224:	63206425 	.word	0x63206425
  512228:	65727275 	.word	0x65727275
  51222c:	745f746e 	.word	0x745f746e
  512230:	3a656d69 	.word	0x3a656d69
  512234:	000a6425 	.word	0x000a6425
  512238:	666f6e6f 	.word	0x666f6e6f
  51223c:	65732066 	.word	0x65732066
  512240:	61742074 	.word	0x61742074
  512244:	74656772 	.word	0x74656772
  512248:	0a64253a 	.word	0x0a64253a
  51224c:	20776800 	.word	0x20776800
  512250:	74696e69 	.word	0x74696e69
  512254:	74756220 	.word	0x74756220
  512258:	206e6f74 	.word	0x206e6f74
  51225c:	61666564 	.word	0x61666564
  512260:	3a746c75 	.word	0x3a746c75
  512264:	70206425 	.word	0x70206425
  512268:	73736572 	.word	0x73736572
  51226c:	253a6465 	.word	0x253a6465
  512270:	6e692064 	.word	0x6e692064
  512274:	3a747570 	.word	0x3a747570
  512278:	000a6425 	.word	0x000a6425

0051227c <wiced_platform_register_button_callback>:
  51227c:	e92d 41f0 	stmdb	sp!, {r4, r5, r6, r7, r8, lr}
  512280:	461f      	mov	r7, r3
  512282:	4b0b      	ldr	r3, [pc, #44]	; (5122b0 <wiced_platform_register_button_callback+0x34>)
  512284:	681b      	ldr	r3, [r3, #0]
  512286:	4298      	cmp	r0, r3
  512288:	d20f      	bcs.n	5122aa <wiced_platform_register_button_callback+0x2e>
  51228a:	0104      	lsls	r4, r0, #4
  51228c:	4d09      	ldr	r5, [pc, #36]	; (5122b4 <wiced_platform_register_button_callback+0x38>)
  51228e:	592b      	ldr	r3, [r5, r4]
  512290:	192e      	adds	r6, r5, r4
  512292:	7818      	ldrb	r0, [r3, #0]
  512294:	4b08      	ldr	r3, [pc, #32]	; (5122b8 <wiced_platform_register_button_callback+0x3c>)
  512296:	4798      	blx	r3
  512298:	6871      	ldr	r1, [r6, #4]
  51229a:	5928      	ldr	r0, [r5, r4]
  51229c:	68b2      	ldr	r2, [r6, #8]
  51229e:	7800      	ldrb	r0, [r0, #0]
  5122a0:	4b06      	ldr	r3, [pc, #24]	; (5122bc <wiced_platform_register_button_callback+0x40>)
  5122a2:	4339      	orrs	r1, r7
  5122a4:	e8bd 41f0 	ldmia.w	sp!, {r4, r5, r6, r7, r8, lr}
  5122a8:	4718      	bx	r3
  5122aa:	e8bd 81f0 	ldmia.w	sp!, {r4, r5, r6, r7, r8, pc}
  5122ae:	bf00      	nop
  5122b0:	005273e0 	.word	0x005273e0
  5122b4:	005273e4 	.word	0x005273e4
  5122b8:	00083321 	.word	0x00083321
  5122bc:	00083271 	.word	0x00083271

005122c0 <wiced_platform_get_button_pressed_value>:
  5122c0:	4b02      	ldr	r3, [pc, #8]	; (5122cc <wiced_platform_get_button_pressed_value+0xc>)
  5122c2:	eb03 1000 	add.w	r0, r3, r0, lsl #4
  5122c6:	68c0      	ldr	r0, [r0, #12]
  5122c8:	4770      	bx	lr
  5122ca:	bf00      	nop
  5122cc:	005273e4 	.word	0x005273e4

005122d0 <wiced_platform_init>:
  5122d0:	b5f8      	push	{r3, r4, r5, r6, r7, lr}
  5122d2:	4b20      	ldr	r3, [pc, #128]	; (512354 <wiced_platform_init+0x84>)
  5122d4:	4d20      	ldr	r5, [pc, #128]	; (512358 <wiced_platform_init+0x88>)
  5122d6:	4e21      	ldr	r6, [pc, #132]	; (51235c <wiced_platform_init+0x8c>)
  5122d8:	4798      	blx	r3
  5122da:	2400      	movs	r4, #0
  5122dc:	1963      	adds	r3, r4, r5
  5122de:	5d28      	ldrb	r0, [r5, r4]
  5122e0:	7859      	ldrb	r1, [r3, #1]
  5122e2:	3402      	adds	r4, #2
  5122e4:	47b0      	blx	r6
  5122e6:	2c2c      	cmp	r4, #44	; 0x2c
  5122e8:	d1f8      	bne.n	5122dc <wiced_platform_init+0xc>
  5122ea:	4c1d      	ldr	r4, [pc, #116]	; (512360 <wiced_platform_init+0x90>)
  5122ec:	4e1d      	ldr	r6, [pc, #116]	; (512364 <wiced_platform_init+0x94>)
  5122ee:	4f1e      	ldr	r7, [pc, #120]	; (512368 <wiced_platform_init+0x98>)
  5122f0:	2500      	movs	r5, #0
  5122f2:	6833      	ldr	r3, [r6, #0]
  5122f4:	42ab      	cmp	r3, r5
  5122f6:	f104 040c 	add.w	r4, r4, #12
  5122fa:	d812      	bhi.n	512322 <wiced_platform_init+0x52>
  5122fc:	4c1b      	ldr	r4, [pc, #108]	; (51236c <wiced_platform_init+0x9c>)
  5122fe:	4e1c      	ldr	r6, [pc, #112]	; (512370 <wiced_platform_init+0xa0>)
  512300:	4f19      	ldr	r7, [pc, #100]	; (512368 <wiced_platform_init+0x98>)
  512302:	2500      	movs	r5, #0
  512304:	6833      	ldr	r3, [r6, #0]
  512306:	42ab      	cmp	r3, r5
  512308:	f104 0410 	add.w	r4, r4, #16
  51230c:	d811      	bhi.n	512332 <wiced_platform_init+0x62>
  51230e:	4c19      	ldr	r4, [pc, #100]	; (512374 <wiced_platform_init+0xa4>)
  512310:	4e19      	ldr	r6, [pc, #100]	; (512378 <wiced_platform_init+0xa8>)
  512312:	4f15      	ldr	r7, [pc, #84]	; (512368 <wiced_platform_init+0x98>)
  512314:	2500      	movs	r5, #0
  512316:	6833      	ldr	r3, [r6, #0]
  512318:	42ab      	cmp	r3, r5
  51231a:	f104 040c 	add.w	r4, r4, #12
  51231e:	d810      	bhi.n	512342 <wiced_platform_init+0x72>
  512320:	bdf8      	pop	{r3, r4, r5, r6, r7, pc}
  512322:	f854 3c0c 	ldr.w	r3, [r4, #-12]
  512326:	e954 1202 	ldrd	r1, r2, [r4, #-8]
  51232a:	7818      	ldrb	r0, [r3, #0]
  51232c:	47b8      	blx	r7
  51232e:	3501      	adds	r5, #1
  512330:	e7df      	b.n	5122f2 <wiced_platform_init+0x22>
  512332:	f854 3c10 	ldr.w	r3, [r4, #-16]
  512336:	e954 1203 	ldrd	r1, r2, [r4, #-12]
  51233a:	7818      	ldrb	r0, [r3, #0]
  51233c:	47b8      	blx	r7
  51233e:	3501      	adds	r5, #1
  512340:	e7e0      	b.n	512304 <wiced_platform_init+0x34>
  512342:	f854 3c0c 	ldr.w	r3, [r4, #-12]
  512346:	e954 1202 	ldrd	r1, r2, [r4, #-8]
  51234a:	7818      	ldrb	r0, [r3, #0]
  51234c:	47b8      	blx	r7
  51234e:	3501      	adds	r5, #1
  512350:	e7e1      	b.n	512316 <wiced_platform_init+0x46>
  512352:	bf00      	nop
  512354:	000834dd 	.word	0x000834dd
  512358:	0052741c 	.word	0x0052741c
  51235c:	00083471 	.word	0x00083471
  512360:	005273f8 	.word	0x005273f8
  512364:	005273f4 	.word	0x005273f4
  512368:	00083271 	.word	0x00083271
  51236c:	005273e4 	.word	0x005273e4
  512370:	005273e0 	.word	0x005273e0
  512374:	005273a4 	.word	0x005273a4
  512378:	005273a0 	.word	0x005273a0

0051237c <install_libs>:
  51237c:	4770      	bx	lr
	...

00512380 <application_start_internal>:
  512380:	b510      	push	{r4, lr}
  512382:	4b04      	ldr	r3, [pc, #16]	; (512394 <application_start_internal+0x14>)
  512384:	4798      	blx	r3
  512386:	4b04      	ldr	r3, [pc, #16]	; (512398 <application_start_internal+0x18>)
  512388:	4798      	blx	r3
  51238a:	4b04      	ldr	r3, [pc, #16]	; (51239c <application_start_internal+0x1c>)
  51238c:	e8bd 4010 	ldmia.w	sp!, {r4, lr}
  512390:	4718      	bx	r3
  512392:	bf00      	nop
  512394:	005122d1 	.word	0x005122d1
  512398:	00272e61 	.word	0x00272e61
  51239c:	00513b65 	.word	0x00513b65

005123a0 <__aeabi_frsub>:
  5123a0:	f080 4000 	eor.w	r0, r0, #2147483648	; 0x80000000
  5123a4:	e002      	b.n	5123ac <__addsf3>
  5123a6:	bf00      	nop

005123a8 <__aeabi_fsub>:
  5123a8:	f081 4100 	eor.w	r1, r1, #2147483648	; 0x80000000

005123ac <__addsf3>:
  5123ac:	0042      	lsls	r2, r0, #1
  5123ae:	bf1f      	itttt	ne
  5123b0:	ea5f 0341 	movsne.w	r3, r1, lsl #1
  5123b4:	ea92 0f03 	teqne	r2, r3
  5123b8:	ea7f 6c22 	mvnsne.w	ip, r2, asr #24
  5123bc:	ea7f 6c23 	mvnsne.w	ip, r3, asr #24
  5123c0:	d06a      	beq.n	512498 <__addsf3+0xec>
  5123c2:	ea4f 6212 	mov.w	r2, r2, lsr #24
  5123c6:	ebd2 6313 	rsbs	r3, r2, r3, lsr #24
  5123ca:	bfc1      	itttt	gt
  5123cc:	18d2      	addgt	r2, r2, r3
  5123ce:	4041      	eorgt	r1, r0
  5123d0:	4048      	eorgt	r0, r1
  5123d2:	4041      	eorgt	r1, r0
  5123d4:	bfb8      	it	lt
  5123d6:	425b      	neglt	r3, r3
  5123d8:	2b19      	cmp	r3, #25
  5123da:	bf88      	it	hi
  5123dc:	4770      	bxhi	lr
  5123de:	f010 4f00 	tst.w	r0, #2147483648	; 0x80000000
  5123e2:	f440 0000 	orr.w	r0, r0, #8388608	; 0x800000
  5123e6:	f020 407f 	bic.w	r0, r0, #4278190080	; 0xff000000
  5123ea:	bf18      	it	ne
  5123ec:	4240      	negne	r0, r0
  5123ee:	f011 4f00 	tst.w	r1, #2147483648	; 0x80000000
  5123f2:	f441 0100 	orr.w	r1, r1, #8388608	; 0x800000
  5123f6:	f021 417f 	bic.w	r1, r1, #4278190080	; 0xff000000
  5123fa:	bf18      	it	ne
  5123fc:	4249      	negne	r1, r1
  5123fe:	ea92 0f03 	teq	r2, r3
  512402:	d03f      	beq.n	512484 <__addsf3+0xd8>
  512404:	f1a2 0201 	sub.w	r2, r2, #1
  512408:	fa41 fc03 	asr.w	ip, r1, r3
  51240c:	eb10 000c 	adds.w	r0, r0, ip
  512410:	f1c3 0320 	rsb	r3, r3, #32
  512414:	fa01 f103 	lsl.w	r1, r1, r3
  512418:	f000 4300 	and.w	r3, r0, #2147483648	; 0x80000000
  51241c:	d502      	bpl.n	512424 <__addsf3+0x78>
  51241e:	4249      	negs	r1, r1
  512420:	eb60 0040 	sbc.w	r0, r0, r0, lsl #1
  512424:	f5b0 0f00 	cmp.w	r0, #8388608	; 0x800000
  512428:	d313      	bcc.n	512452 <__addsf3+0xa6>
  51242a:	f1b0 7f80 	cmp.w	r0, #16777216	; 0x1000000
  51242e:	d306      	bcc.n	51243e <__addsf3+0x92>
  512430:	0840      	lsrs	r0, r0, #1
  512432:	ea4f 0131 	mov.w	r1, r1, rrx
  512436:	f102 0201 	add.w	r2, r2, #1
  51243a:	2afe      	cmp	r2, #254	; 0xfe
  51243c:	d251      	bcs.n	5124e2 <__addsf3+0x136>
  51243e:	f1b1 4f00 	cmp.w	r1, #2147483648	; 0x80000000
  512442:	eb40 50c2 	adc.w	r0, r0, r2, lsl #23
  512446:	bf08      	it	eq
  512448:	f020 0001 	biceq.w	r0, r0, #1
  51244c:	ea40 0003 	orr.w	r0, r0, r3
  512450:	4770      	bx	lr
  512452:	0049      	lsls	r1, r1, #1
  512454:	eb40 0000 	adc.w	r0, r0, r0
  512458:	f410 0f00 	tst.w	r0, #8388608	; 0x800000
  51245c:	f1a2 0201 	sub.w	r2, r2, #1
  512460:	d1ed      	bne.n	51243e <__addsf3+0x92>
  512462:	fab0 fc80 	clz	ip, r0
  512466:	f1ac 0c08 	sub.w	ip, ip, #8
  51246a:	ebb2 020c 	subs.w	r2, r2, ip
  51246e:	fa00 f00c 	lsl.w	r0, r0, ip
  512472:	bfaa      	itet	ge
  512474:	eb00 50c2 	addge.w	r0, r0, r2, lsl #23
  512478:	4252      	neglt	r2, r2
  51247a:	4318      	orrge	r0, r3
  51247c:	bfbc      	itt	lt
  51247e:	40d0      	lsrlt	r0, r2
  512480:	4318      	orrlt	r0, r3
  512482:	4770      	bx	lr
  512484:	f092 0f00 	teq	r2, #0
  512488:	f481 0100 	eor.w	r1, r1, #8388608	; 0x800000
  51248c:	bf06      	itte	eq
  51248e:	f480 0000 	eoreq.w	r0, r0, #8388608	; 0x800000
  512492:	3201      	addeq	r2, #1
  512494:	3b01      	subne	r3, #1
  512496:	e7b5      	b.n	512404 <__addsf3+0x58>
  512498:	ea4f 0341 	mov.w	r3, r1, lsl #1
  51249c:	ea7f 6c22 	mvns.w	ip, r2, asr #24
  5124a0:	bf18      	it	ne
  5124a2:	ea7f 6c23 	mvnsne.w	ip, r3, asr #24
  5124a6:	d021      	beq.n	5124ec <__addsf3+0x140>
  5124a8:	ea92 0f03 	teq	r2, r3
  5124ac:	d004      	beq.n	5124b8 <__addsf3+0x10c>
  5124ae:	f092 0f00 	teq	r2, #0
  5124b2:	bf08      	it	eq
  5124b4:	4608      	moveq	r0, r1
  5124b6:	4770      	bx	lr
  5124b8:	ea90 0f01 	teq	r0, r1
  5124bc:	bf1c      	itt	ne
  5124be:	2000      	movne	r0, #0
  5124c0:	4770      	bxne	lr
  5124c2:	f012 4f7f 	tst.w	r2, #4278190080	; 0xff000000
  5124c6:	d104      	bne.n	5124d2 <__addsf3+0x126>
  5124c8:	0040      	lsls	r0, r0, #1
  5124ca:	bf28      	it	cs
  5124cc:	f040 4000 	orrcs.w	r0, r0, #2147483648	; 0x80000000
  5124d0:	4770      	bx	lr
  5124d2:	f112 7200 	adds.w	r2, r2, #33554432	; 0x2000000
  5124d6:	bf3c      	itt	cc
  5124d8:	f500 0000 	addcc.w	r0, r0, #8388608	; 0x800000
  5124dc:	4770      	bxcc	lr
  5124de:	f000 4300 	and.w	r3, r0, #2147483648	; 0x80000000
  5124e2:	f043 40fe 	orr.w	r0, r3, #2130706432	; 0x7f000000
  5124e6:	f440 0000 	orr.w	r0, r0, #8388608	; 0x800000
  5124ea:	4770      	bx	lr
  5124ec:	ea7f 6222 	mvns.w	r2, r2, asr #24
  5124f0:	bf16      	itet	ne
  5124f2:	4608      	movne	r0, r1
  5124f4:	ea7f 6323 	mvnseq.w	r3, r3, asr #24
  5124f8:	4601      	movne	r1, r0
  5124fa:	0242      	lsls	r2, r0, #9
  5124fc:	bf06      	itte	eq
  5124fe:	ea5f 2341 	movseq.w	r3, r1, lsl #9
  512502:	ea90 0f01 	teqeq	r0, r1
  512506:	f440 0080 	orrne.w	r0, r0, #4194304	; 0x400000
  51250a:	4770      	bx	lr

0051250c <__aeabi_ui2f>:
  51250c:	f04f 0300 	mov.w	r3, #0
  512510:	e004      	b.n	51251c <__aeabi_i2f+0x8>
  512512:	bf00      	nop

00512514 <__aeabi_i2f>:
  512514:	f010 4300 	ands.w	r3, r0, #2147483648	; 0x80000000
  512518:	bf48      	it	mi
  51251a:	4240      	negmi	r0, r0
  51251c:	ea5f 0c00 	movs.w	ip, r0
  512520:	bf08      	it	eq
  512522:	4770      	bxeq	lr
  512524:	f043 4396 	orr.w	r3, r3, #1258291200	; 0x4b000000
  512528:	4601      	mov	r1, r0
  51252a:	f04f 0000 	mov.w	r0, #0
  51252e:	e01c      	b.n	51256a <__aeabi_l2f+0x2a>

00512530 <__aeabi_ul2f>:
  512530:	ea50 0201 	orrs.w	r2, r0, r1
  512534:	bf08      	it	eq
  512536:	4770      	bxeq	lr
  512538:	f04f 0300 	mov.w	r3, #0
  51253c:	e00a      	b.n	512554 <__aeabi_l2f+0x14>
  51253e:	bf00      	nop

00512540 <__aeabi_l2f>:
  512540:	ea50 0201 	orrs.w	r2, r0, r1
  512544:	bf08      	it	eq
  512546:	4770      	bxeq	lr
  512548:	f011 4300 	ands.w	r3, r1, #2147483648	; 0x80000000
  51254c:	d502      	bpl.n	512554 <__aeabi_l2f+0x14>
  51254e:	4240      	negs	r0, r0
  512550:	eb61 0141 	sbc.w	r1, r1, r1, lsl #1
  512554:	ea5f 0c01 	movs.w	ip, r1
  512558:	bf02      	ittt	eq
  51255a:	4684      	moveq	ip, r0
  51255c:	4601      	moveq	r1, r0
  51255e:	2000      	moveq	r0, #0
  512560:	f043 43b6 	orr.w	r3, r3, #1526726656	; 0x5b000000
  512564:	bf08      	it	eq
  512566:	f1a3 5380 	subeq.w	r3, r3, #268435456	; 0x10000000
  51256a:	f5a3 0300 	sub.w	r3, r3, #8388608	; 0x800000
  51256e:	fabc f28c 	clz	r2, ip
  512572:	3a08      	subs	r2, #8
  512574:	eba3 53c2 	sub.w	r3, r3, r2, lsl #23
  512578:	db10      	blt.n	51259c <__aeabi_l2f+0x5c>
  51257a:	fa01 fc02 	lsl.w	ip, r1, r2
  51257e:	4463      	add	r3, ip
  512580:	fa00 fc02 	lsl.w	ip, r0, r2
  512584:	f1c2 0220 	rsb	r2, r2, #32
  512588:	f1bc 4f00 	cmp.w	ip, #2147483648	; 0x80000000
  51258c:	fa20 f202 	lsr.w	r2, r0, r2
  512590:	eb43 0002 	adc.w	r0, r3, r2
  512594:	bf08      	it	eq
  512596:	f020 0001 	biceq.w	r0, r0, #1
  51259a:	4770      	bx	lr
  51259c:	f102 0220 	add.w	r2, r2, #32
  5125a0:	fa01 fc02 	lsl.w	ip, r1, r2
  5125a4:	f1c2 0220 	rsb	r2, r2, #32
  5125a8:	ea50 004c 	orrs.w	r0, r0, ip, lsl #1
  5125ac:	fa21 f202 	lsr.w	r2, r1, r2
  5125b0:	eb43 0002 	adc.w	r0, r3, r2
  5125b4:	bf08      	it	eq
  5125b6:	ea20 70dc 	biceq.w	r0, r0, ip, lsr #31
  5125ba:	4770      	bx	lr

005125bc <__aeabi_fmul>:
  5125bc:	f04f 0cff 	mov.w	ip, #255	; 0xff
  5125c0:	ea1c 52d0 	ands.w	r2, ip, r0, lsr #23
  5125c4:	bf1e      	ittt	ne
  5125c6:	ea1c 53d1 	andsne.w	r3, ip, r1, lsr #23
  5125ca:	ea92 0f0c 	teqne	r2, ip
  5125ce:	ea93 0f0c 	teqne	r3, ip
  5125d2:	d06f      	beq.n	5126b4 <__aeabi_fmul+0xf8>
  5125d4:	441a      	add	r2, r3
  5125d6:	ea80 0c01 	eor.w	ip, r0, r1
  5125da:	0240      	lsls	r0, r0, #9
  5125dc:	bf18      	it	ne
  5125de:	ea5f 2141 	movsne.w	r1, r1, lsl #9
  5125e2:	d01e      	beq.n	512622 <__aeabi_fmul+0x66>
  5125e4:	f04f 6300 	mov.w	r3, #134217728	; 0x8000000
  5125e8:	ea43 1050 	orr.w	r0, r3, r0, lsr #5
  5125ec:	ea43 1151 	orr.w	r1, r3, r1, lsr #5
  5125f0:	fba0 3101 	umull	r3, r1, r0, r1
  5125f4:	f00c 4000 	and.w	r0, ip, #2147483648	; 0x80000000
  5125f8:	f5b1 0f00 	cmp.w	r1, #8388608	; 0x800000
  5125fc:	bf3e      	ittt	cc
  5125fe:	0049      	lslcc	r1, r1, #1
  512600:	ea41 71d3 	orrcc.w	r1, r1, r3, lsr #31
  512604:	005b      	lslcc	r3, r3, #1
  512606:	ea40 0001 	orr.w	r0, r0, r1
  51260a:	f162 027f 	sbc.w	r2, r2, #127	; 0x7f
  51260e:	2afd      	cmp	r2, #253	; 0xfd
  512610:	d81d      	bhi.n	51264e <__aeabi_fmul+0x92>
  512612:	f1b3 4f00 	cmp.w	r3, #2147483648	; 0x80000000
  512616:	eb40 50c2 	adc.w	r0, r0, r2, lsl #23
  51261a:	bf08      	it	eq
  51261c:	f020 0001 	biceq.w	r0, r0, #1
  512620:	4770      	bx	lr
  512622:	f090 0f00 	teq	r0, #0
  512626:	f00c 4c00 	and.w	ip, ip, #2147483648	; 0x80000000
  51262a:	bf08      	it	eq
  51262c:	0249      	lsleq	r1, r1, #9
  51262e:	ea4c 2050 	orr.w	r0, ip, r0, lsr #9
  512632:	ea40 2051 	orr.w	r0, r0, r1, lsr #9
  512636:	3a7f      	subs	r2, #127	; 0x7f
  512638:	bfc2      	ittt	gt
  51263a:	f1d2 03ff 	rsbsgt	r3, r2, #255	; 0xff
  51263e:	ea40 50c2 	orrgt.w	r0, r0, r2, lsl #23
  512642:	4770      	bxgt	lr
  512644:	f440 0000 	orr.w	r0, r0, #8388608	; 0x800000
  512648:	f04f 0300 	mov.w	r3, #0
  51264c:	3a01      	subs	r2, #1
  51264e:	dc5d      	bgt.n	51270c <__aeabi_fmul+0x150>
  512650:	f112 0f19 	cmn.w	r2, #25
  512654:	bfdc      	itt	le
  512656:	f000 4000 	andle.w	r0, r0, #2147483648	; 0x80000000
  51265a:	4770      	bxle	lr
  51265c:	f1c2 0200 	rsb	r2, r2, #0
  512660:	0041      	lsls	r1, r0, #1
  512662:	fa21 f102 	lsr.w	r1, r1, r2
  512666:	f1c2 0220 	rsb	r2, r2, #32
  51266a:	fa00 fc02 	lsl.w	ip, r0, r2
  51266e:	ea5f 0031 	movs.w	r0, r1, rrx
  512672:	f140 0000 	adc.w	r0, r0, #0
  512676:	ea53 034c 	orrs.w	r3, r3, ip, lsl #1
  51267a:	bf08      	it	eq
  51267c:	ea20 70dc 	biceq.w	r0, r0, ip, lsr #31
  512680:	4770      	bx	lr
  512682:	f092 0f00 	teq	r2, #0
  512686:	f000 4c00 	and.w	ip, r0, #2147483648	; 0x80000000
  51268a:	bf02      	ittt	eq
  51268c:	0040      	lsleq	r0, r0, #1
  51268e:	f410 0f00 	tsteq.w	r0, #8388608	; 0x800000
  512692:	3a01      	subeq	r2, #1
  512694:	d0f9      	beq.n	51268a <__aeabi_fmul+0xce>
  512696:	ea40 000c 	orr.w	r0, r0, ip
  51269a:	f093 0f00 	teq	r3, #0
  51269e:	f001 4c00 	and.w	ip, r1, #2147483648	; 0x80000000
  5126a2:	bf02      	ittt	eq
  5126a4:	0049      	lsleq	r1, r1, #1
  5126a6:	f411 0f00 	tsteq.w	r1, #8388608	; 0x800000
  5126aa:	3b01      	subeq	r3, #1
  5126ac:	d0f9      	beq.n	5126a2 <__aeabi_fmul+0xe6>
  5126ae:	ea41 010c 	orr.w	r1, r1, ip
  5126b2:	e78f      	b.n	5125d4 <__aeabi_fmul+0x18>
  5126b4:	ea0c 53d1 	and.w	r3, ip, r1, lsr #23
  5126b8:	ea92 0f0c 	teq	r2, ip
  5126bc:	bf18      	it	ne
  5126be:	ea93 0f0c 	teqne	r3, ip
  5126c2:	d00a      	beq.n	5126da <__aeabi_fmul+0x11e>
  5126c4:	f030 4c00 	bics.w	ip, r0, #2147483648	; 0x80000000
  5126c8:	bf18      	it	ne
  5126ca:	f031 4c00 	bicsne.w	ip, r1, #2147483648	; 0x80000000
  5126ce:	d1d8      	bne.n	512682 <__aeabi_fmul+0xc6>
  5126d0:	ea80 0001 	eor.w	r0, r0, r1
  5126d4:	f000 4000 	and.w	r0, r0, #2147483648	; 0x80000000
  5126d8:	4770      	bx	lr
  5126da:	f090 0f00 	teq	r0, #0
  5126de:	bf17      	itett	ne
  5126e0:	f090 4f00 	teqne	r0, #2147483648	; 0x80000000
  5126e4:	4608      	moveq	r0, r1
  5126e6:	f091 0f00 	teqne	r1, #0
  5126ea:	f091 4f00 	teqne	r1, #2147483648	; 0x80000000
  5126ee:	d014      	beq.n	51271a <__aeabi_fmul+0x15e>
  5126f0:	ea92 0f0c 	teq	r2, ip
  5126f4:	d101      	bne.n	5126fa <__aeabi_fmul+0x13e>
  5126f6:	0242      	lsls	r2, r0, #9
  5126f8:	d10f      	bne.n	51271a <__aeabi_fmul+0x15e>
  5126fa:	ea93 0f0c 	teq	r3, ip
  5126fe:	d103      	bne.n	512708 <__aeabi_fmul+0x14c>
  512700:	024b      	lsls	r3, r1, #9
  512702:	bf18      	it	ne
  512704:	4608      	movne	r0, r1
  512706:	d108      	bne.n	51271a <__aeabi_fmul+0x15e>
  512708:	ea80 0001 	eor.w	r0, r0, r1
  51270c:	f000 4000 	and.w	r0, r0, #2147483648	; 0x80000000
  512710:	f040 40fe 	orr.w	r0, r0, #2130706432	; 0x7f000000
  512714:	f440 0000 	orr.w	r0, r0, #8388608	; 0x800000
  512718:	4770      	bx	lr
  51271a:	f040 40fe 	orr.w	r0, r0, #2130706432	; 0x7f000000
  51271e:	f440 0040 	orr.w	r0, r0, #12582912	; 0xc00000
  512722:	4770      	bx	lr

00512724 <__aeabi_fdiv>:
  512724:	f04f 0cff 	mov.w	ip, #255	; 0xff
  512728:	ea1c 52d0 	ands.w	r2, ip, r0, lsr #23
  51272c:	bf1e      	ittt	ne
  51272e:	ea1c 53d1 	andsne.w	r3, ip, r1, lsr #23
  512732:	ea92 0f0c 	teqne	r2, ip
  512736:	ea93 0f0c 	teqne	r3, ip
  51273a:	d069      	beq.n	512810 <__aeabi_fdiv+0xec>
  51273c:	eba2 0203 	sub.w	r2, r2, r3
  512740:	ea80 0c01 	eor.w	ip, r0, r1
  512744:	0249      	lsls	r1, r1, #9
  512746:	ea4f 2040 	mov.w	r0, r0, lsl #9
  51274a:	d037      	beq.n	5127bc <__aeabi_fdiv+0x98>
  51274c:	f04f 5380 	mov.w	r3, #268435456	; 0x10000000
  512750:	ea43 1111 	orr.w	r1, r3, r1, lsr #4
  512754:	ea43 1310 	orr.w	r3, r3, r0, lsr #4
  512758:	f00c 4000 	and.w	r0, ip, #2147483648	; 0x80000000
  51275c:	428b      	cmp	r3, r1
  51275e:	bf38      	it	cc
  512760:	005b      	lslcc	r3, r3, #1
  512762:	f142 027d 	adc.w	r2, r2, #125	; 0x7d
  512766:	f44f 0c00 	mov.w	ip, #8388608	; 0x800000
  51276a:	428b      	cmp	r3, r1
  51276c:	bf24      	itt	cs
  51276e:	1a5b      	subcs	r3, r3, r1
  512770:	ea40 000c 	orrcs.w	r0, r0, ip
  512774:	ebb3 0f51 	cmp.w	r3, r1, lsr #1
  512778:	bf24      	itt	cs
  51277a:	eba3 0351 	subcs.w	r3, r3, r1, lsr #1
  51277e:	ea40 005c 	orrcs.w	r0, r0, ip, lsr #1
  512782:	ebb3 0f91 	cmp.w	r3, r1, lsr #2
  512786:	bf24      	itt	cs
  512788:	eba3 0391 	subcs.w	r3, r3, r1, lsr #2
  51278c:	ea40 009c 	orrcs.w	r0, r0, ip, lsr #2
  512790:	ebb3 0fd1 	cmp.w	r3, r1, lsr #3
  512794:	bf24      	itt	cs
  512796:	eba3 03d1 	subcs.w	r3, r3, r1, lsr #3
  51279a:	ea40 00dc 	orrcs.w	r0, r0, ip, lsr #3
  51279e:	011b      	lsls	r3, r3, #4
  5127a0:	bf18      	it	ne
  5127a2:	ea5f 1c1c 	movsne.w	ip, ip, lsr #4
  5127a6:	d1e0      	bne.n	51276a <__aeabi_fdiv+0x46>
  5127a8:	2afd      	cmp	r2, #253	; 0xfd
  5127aa:	f63f af50 	bhi.w	51264e <__aeabi_fmul+0x92>
  5127ae:	428b      	cmp	r3, r1
  5127b0:	eb40 50c2 	adc.w	r0, r0, r2, lsl #23
  5127b4:	bf08      	it	eq
  5127b6:	f020 0001 	biceq.w	r0, r0, #1
  5127ba:	4770      	bx	lr
  5127bc:	f00c 4c00 	and.w	ip, ip, #2147483648	; 0x80000000
  5127c0:	ea4c 2050 	orr.w	r0, ip, r0, lsr #9
  5127c4:	327f      	adds	r2, #127	; 0x7f
  5127c6:	bfc2      	ittt	gt
  5127c8:	f1d2 03ff 	rsbsgt	r3, r2, #255	; 0xff
  5127cc:	ea40 50c2 	orrgt.w	r0, r0, r2, lsl #23
  5127d0:	4770      	bxgt	lr
  5127d2:	f440 0000 	orr.w	r0, r0, #8388608	; 0x800000
  5127d6:	f04f 0300 	mov.w	r3, #0
  5127da:	3a01      	subs	r2, #1
  5127dc:	e737      	b.n	51264e <__aeabi_fmul+0x92>
  5127de:	f092 0f00 	teq	r2, #0
  5127e2:	f000 4c00 	and.w	ip, r0, #2147483648	; 0x80000000
  5127e6:	bf02      	ittt	eq
  5127e8:	0040      	lsleq	r0, r0, #1
  5127ea:	f410 0f00 	tsteq.w	r0, #8388608	; 0x800000
  5127ee:	3a01      	subeq	r2, #1
  5127f0:	d0f9      	beq.n	5127e6 <__aeabi_fdiv+0xc2>
  5127f2:	ea40 000c 	orr.w	r0, r0, ip
  5127f6:	f093 0f00 	teq	r3, #0
  5127fa:	f001 4c00 	and.w	ip, r1, #2147483648	; 0x80000000
  5127fe:	bf02      	ittt	eq
  512800:	0049      	lsleq	r1, r1, #1
  512802:	f411 0f00 	tsteq.w	r1, #8388608	; 0x800000
  512806:	3b01      	subeq	r3, #1
  512808:	d0f9      	beq.n	5127fe <__aeabi_fdiv+0xda>
  51280a:	ea41 010c 	orr.w	r1, r1, ip
  51280e:	e795      	b.n	51273c <__aeabi_fdiv+0x18>
  512810:	ea0c 53d1 	and.w	r3, ip, r1, lsr #23
  512814:	ea92 0f0c 	teq	r2, ip
  512818:	d108      	bne.n	51282c <__aeabi_fdiv+0x108>
  51281a:	0242      	lsls	r2, r0, #9
  51281c:	f47f af7d 	bne.w	51271a <__aeabi_fmul+0x15e>
  512820:	ea93 0f0c 	teq	r3, ip
  512824:	f47f af70 	bne.w	512708 <__aeabi_fmul+0x14c>
  512828:	4608      	mov	r0, r1
  51282a:	e776      	b.n	51271a <__aeabi_fmul+0x15e>
  51282c:	ea93 0f0c 	teq	r3, ip
  512830:	d104      	bne.n	51283c <__aeabi_fdiv+0x118>
  512832:	024b      	lsls	r3, r1, #9
  512834:	f43f af4c 	beq.w	5126d0 <__aeabi_fmul+0x114>
  512838:	4608      	mov	r0, r1
  51283a:	e76e      	b.n	51271a <__aeabi_fmul+0x15e>
  51283c:	f030 4c00 	bics.w	ip, r0, #2147483648	; 0x80000000
  512840:	bf18      	it	ne
  512842:	f031 4c00 	bicsne.w	ip, r1, #2147483648	; 0x80000000
  512846:	d1ca      	bne.n	5127de <__aeabi_fdiv+0xba>
  512848:	f030 4200 	bics.w	r2, r0, #2147483648	; 0x80000000
  51284c:	f47f af5c 	bne.w	512708 <__aeabi_fmul+0x14c>
  512850:	f031 4300 	bics.w	r3, r1, #2147483648	; 0x80000000
  512854:	f47f af3c 	bne.w	5126d0 <__aeabi_fmul+0x114>
  512858:	e75f      	b.n	51271a <__aeabi_fmul+0x15e>
  51285a:	bf00      	nop

0051285c <__aeabi_f2uiz>:
  51285c:	0042      	lsls	r2, r0, #1
  51285e:	d20e      	bcs.n	51287e <__aeabi_f2uiz+0x22>
  512860:	f1b2 4ffe 	cmp.w	r2, #2130706432	; 0x7f000000
  512864:	d30b      	bcc.n	51287e <__aeabi_f2uiz+0x22>
  512866:	f04f 039e 	mov.w	r3, #158	; 0x9e
  51286a:	ebb3 6212 	subs.w	r2, r3, r2, lsr #24
  51286e:	d409      	bmi.n	512884 <__aeabi_f2uiz+0x28>
  512870:	ea4f 2300 	mov.w	r3, r0, lsl #8
  512874:	f043 4300 	orr.w	r3, r3, #2147483648	; 0x80000000
  512878:	fa23 f002 	lsr.w	r0, r3, r2
  51287c:	4770      	bx	lr
  51287e:	f04f 0000 	mov.w	r0, #0
  512882:	4770      	bx	lr
  512884:	f112 0f61 	cmn.w	r2, #97	; 0x61
  512888:	d101      	bne.n	51288e <__aeabi_f2uiz+0x32>
  51288a:	0242      	lsls	r2, r0, #9
  51288c:	d102      	bne.n	512894 <__aeabi_f2uiz+0x38>
  51288e:	f04f 30ff 	mov.w	r0, #4294967295
  512892:	4770      	bx	lr
  512894:	f04f 0000 	mov.w	r0, #0
  512898:	4770      	bx	lr
  51289a:	bf00      	nop

0051289c <thermistor_init>:
  51289c:	4b00      	ldr	r3, [pc, #0]	; (5128a0 <thermistor_init+0x4>)
  51289e:	4718      	bx	r3
  5128a0:	000d37fd 	.word	0x000d37fd

005128a4 <thermistor_read>:
  5128a4:	b5f7      	push	{r0, r1, r2, r4, r5, r6, r7, lr}
  5128a6:	4d29      	ldr	r5, [pc, #164]	; (51294c <thermistor_read+0xa8>)
  5128a8:	4e29      	ldr	r6, [pc, #164]	; (512950 <thermistor_read+0xac>)
  5128aa:	88a8      	ldrh	r0, [r5, #4]
  5128ac:	4f29      	ldr	r7, [pc, #164]	; (512954 <thermistor_read+0xb0>)
  5128ae:	2201      	movs	r2, #1
  5128b0:	f44f 4180 	mov.w	r1, #16384	; 0x4000
  5128b4:	47b0      	blx	r6
  5128b6:	7828      	ldrb	r0, [r5, #0]
  5128b8:	47b8      	blx	r7
  5128ba:	4604      	mov	r4, r0
  5128bc:	78a8      	ldrb	r0, [r5, #2]
  5128be:	47b8      	blx	r7
  5128c0:	68ab      	ldr	r3, [r5, #8]
  5128c2:	1a22      	subs	r2, r4, r0
  5128c4:	f242 7410 	movw	r4, #10000	; 0x2710
  5128c8:	4354      	muls	r4, r2
  5128ca:	fbb4 f0f0 	udiv	r0, r4, r0
  5128ce:	4283      	cmp	r3, r0
  5128d0:	4633      	mov	r3, r6
  5128d2:	d939      	bls.n	512948 <thermistor_read+0xa4>
  5128d4:	2100      	movs	r1, #0
  5128d6:	f105 0708 	add.w	r7, r5, #8
  5128da:	f857 6021 	ldr.w	r6, [r7, r1, lsl #2]
  5128de:	4286      	cmp	r6, r0
  5128e0:	ea4f 0281 	mov.w	r2, r1, lsl #2
  5128e4:	f101 0401 	add.w	r4, r1, #1
  5128e8:	d928      	bls.n	51293c <thermistor_read+0x98>
  5128ea:	f102 0c04 	add.w	ip, r2, #4
  5128ee:	f85c c007 	ldr.w	ip, [ip, r7]
  5128f2:	4584      	cmp	ip, r0
  5128f4:	d822      	bhi.n	51293c <thermistor_read+0x98>
  5128f6:	440a      	add	r2, r1
  5128f8:	1a30      	subs	r0, r6, r0
  5128fa:	2464      	movs	r4, #100	; 0x64
  5128fc:	eb02 0282 	add.w	r2, r2, r2, lsl #2
  512900:	4344      	muls	r4, r0
  512902:	eba6 060c 	sub.w	r6, r6, ip
  512906:	fbb4 f4f6 	udiv	r4, r4, r6
  51290a:	eb04 0482 	add.w	r4, r4, r2, lsl #2
  51290e:	f5a4 647a 	sub.w	r4, r4, #4000	; 0xfa0
  512912:	b224      	sxth	r4, r4
  512914:	88a8      	ldrh	r0, [r5, #4]
  512916:	4d10      	ldr	r5, [pc, #64]	; (512958 <thermistor_read+0xb4>)
  512918:	2200      	movs	r2, #0
  51291a:	f44f 4180 	mov.w	r1, #16384	; 0x4000
  51291e:	4798      	blx	r3
  512920:	2264      	movs	r2, #100	; 0x64
  512922:	fb94 f3f2 	sdiv	r3, r4, r2
  512926:	fb02 4213 	mls	r2, r2, r3, r4
  51292a:	2100      	movs	r1, #0
  51292c:	b212      	sxth	r2, r2
  51292e:	9200      	str	r2, [sp, #0]
  512930:	4608      	mov	r0, r1
  512932:	4a0a      	ldr	r2, [pc, #40]	; (51295c <thermistor_read+0xb8>)
  512934:	47a8      	blx	r5
  512936:	4620      	mov	r0, r4
  512938:	b003      	add	sp, #12
  51293a:	bdf0      	pop	{r4, r5, r6, r7, pc}
  51293c:	2c7d      	cmp	r4, #125	; 0x7d
  51293e:	4621      	mov	r1, r4
  512940:	d1cb      	bne.n	5128da <thermistor_read+0x36>
  512942:	f242 1434 	movw	r4, #8500	; 0x2134
  512946:	e7e5      	b.n	512914 <thermistor_read+0x70>
  512948:	4c05      	ldr	r4, [pc, #20]	; (512960 <thermistor_read+0xbc>)
  51294a:	e7e3      	b.n	512914 <thermistor_read+0x70>
  51294c:	0020fac0 	.word	0x0020fac0
  512950:	00083271 	.word	0x00083271
  512954:	000d380d 	.word	0x000d380d
  512958:	000d3259 	.word	0x000d3259
  51295c:	0052754f 	.word	0x0052754f
  512960:	fffff060 	.word	0xfffff060

00512964 <e93196_int_clean>:
  512964:	b510      	push	{r4, lr}
  512966:	4b05      	ldr	r3, [pc, #20]	; (51297c <e93196_int_clean+0x18>)
  512968:	4604      	mov	r4, r0
  51296a:	4798      	blx	r3
  51296c:	4620      	mov	r0, r4
  51296e:	2200      	movs	r2, #0
  512970:	f44f 7102 	mov.w	r1, #520	; 0x208
  512974:	4b02      	ldr	r3, [pc, #8]	; (512980 <e93196_int_clean+0x1c>)
  512976:	e8bd 4010 	ldmia.w	sp!, {r4, lr}
  51297a:	4718      	bx	r3
  51297c:	00512d99 	.word	0x00512d99
  512980:	00083271 	.word	0x00083271

00512984 <e93196_data_read>:
  512984:	e92d 4ff8 	stmdb	sp!, {r3, r4, r5, r6, r7, r8, r9, sl, fp, lr}
  512988:	f8df 806c 	ldr.w	r8, [pc, #108]	; 5129f8 <e93196_data_read+0x74>
  51298c:	4d16      	ldr	r5, [pc, #88]	; (5129e8 <e93196_data_read+0x64>)
  51298e:	f8df a06c 	ldr.w	sl, [pc, #108]	; 5129fc <e93196_data_read+0x78>
  512992:	4604      	mov	r4, r0
  512994:	468b      	mov	fp, r1
  512996:	47c0      	blx	r8
  512998:	207a      	movs	r0, #122	; 0x7a
  51299a:	4b14      	ldr	r3, [pc, #80]	; (5129ec <e93196_data_read+0x68>)
  51299c:	4798      	blx	r3
  51299e:	4620      	mov	r0, r4
  5129a0:	47a8      	blx	r5
  5129a2:	f04f 0928 	mov.w	r9, #40	; 0x28
  5129a6:	2600      	movs	r6, #0
  5129a8:	2700      	movs	r7, #0
  5129aa:	4620      	mov	r0, r4
  5129ac:	47c0      	blx	r8
  5129ae:	4620      	mov	r0, r4
  5129b0:	47d0      	blx	sl
  5129b2:	19b6      	adds	r6, r6, r6
  5129b4:	4620      	mov	r0, r4
  5129b6:	4b0e      	ldr	r3, [pc, #56]	; (5129f0 <e93196_data_read+0x6c>)
  5129b8:	417f      	adcs	r7, r7
  5129ba:	4798      	blx	r3
  5129bc:	2801      	cmp	r0, #1
  5129be:	d110      	bne.n	5129e2 <e93196_data_read+0x5e>
  5129c0:	4620      	mov	r0, r4
  5129c2:	f046 0601 	orr.w	r6, r6, #1
  5129c6:	47c0      	blx	r8
  5129c8:	4620      	mov	r0, r4
  5129ca:	47a8      	blx	r5
  5129cc:	f1b9 0901 	subs.w	r9, r9, #1
  5129d0:	d1eb      	bne.n	5129aa <e93196_data_read+0x26>
  5129d2:	4b08      	ldr	r3, [pc, #32]	; (5129f4 <e93196_data_read+0x70>)
  5129d4:	4620      	mov	r0, r4
  5129d6:	4798      	blx	r3
  5129d8:	b2fb      	uxtb	r3, r7
  5129da:	e9cb 3600 	strd	r3, r6, [fp]
  5129de:	e8bd 8ff8 	ldmia.w	sp!, {r3, r4, r5, r6, r7, r8, r9, sl, fp, pc}
  5129e2:	4620      	mov	r0, r4
  5129e4:	47a8      	blx	r5
  5129e6:	e7ef      	b.n	5129c8 <e93196_data_read+0x44>
  5129e8:	00512d99 	.word	0x00512d99
  5129ec:	000236cf 	.word	0x000236cf
  5129f0:	00512dcd 	.word	0x00512dcd
  5129f4:	00512dbd 	.word	0x00512dbd
  5129f8:	00512d91 	.word	0x00512d91
  5129fc:	00512dad 	.word	0x00512dad

00512a00 <e93196_data_write>:
  512a00:	e92d 47f0 	stmdb	sp!, {r4, r5, r6, r7, r8, r9, sl, lr}
  512a04:	4e10      	ldr	r6, [pc, #64]	; (512a48 <e93196_data_write+0x48>)
  512a06:	4f11      	ldr	r7, [pc, #68]	; (512a4c <e93196_data_write+0x4c>)
  512a08:	4604      	mov	r4, r0
  512a0a:	4689      	mov	r9, r1
  512a0c:	2518      	movs	r5, #24
  512a0e:	46b0      	mov	r8, r6
  512a10:	4620      	mov	r0, r4
  512a12:	47b0      	blx	r6
  512a14:	4620      	mov	r0, r4
  512a16:	47b8      	blx	r7
  512a18:	2301      	movs	r3, #1
  512a1a:	40ab      	lsls	r3, r5
  512a1c:	ea13 0f09 	tst.w	r3, r9
  512a20:	4620      	mov	r0, r4
  512a22:	d00e      	beq.n	512a42 <e93196_data_write+0x42>
  512a24:	47b8      	blx	r7
  512a26:	203c      	movs	r0, #60	; 0x3c
  512a28:	f8df a024 	ldr.w	sl, [pc, #36]	; 512a50 <e93196_data_write+0x50>
  512a2c:	47d0      	blx	sl
  512a2e:	f115 35ff 	adds.w	r5, r5, #4294967295
  512a32:	d2ed      	bcs.n	512a10 <e93196_data_write+0x10>
  512a34:	4620      	mov	r0, r4
  512a36:	47c0      	blx	r8
  512a38:	4653      	mov	r3, sl
  512a3a:	2038      	movs	r0, #56	; 0x38
  512a3c:	e8bd 47f0 	ldmia.w	sp!, {r4, r5, r6, r7, r8, r9, sl, lr}
  512a40:	4718      	bx	r3
  512a42:	47b0      	blx	r6
  512a44:	e7ef      	b.n	512a26 <e93196_data_write+0x26>
  512a46:	bf00      	nop
  512a48:	00512d81 	.word	0x00512d81
  512a4c:	00512d71 	.word	0x00512d71
  512a50:	000236cf 	.word	0x000236cf

00512a54 <e93196_read_data_trans>:
  512a54:	e9d1 3100 	ldrd	r3, r1, [r1]
  512a58:	2200      	movs	r2, #0
  512a5a:	e92d 4800 	stmdb	sp!, {fp, lr}
  512a5e:	ea42 0b01 	orr.w	fp, r2, r1
  512a62:	f3c3 11c0 	ubfx	r1, r3, #7, #1
  512a66:	7001      	strb	r1, [r0, #0]
  512a68:	ea4f 615b 	mov.w	r1, fp, lsr #25
  512a6c:	ea41 11c3 	orr.w	r1, r1, r3, lsl #7
  512a70:	ea4f 435b 	mov.w	r3, fp, lsr #17
  512a74:	7203      	strb	r3, [r0, #8]
  512a76:	f3cb 3343 	ubfx	r3, fp, #13, #4
  512a7a:	7243      	strb	r3, [r0, #9]
  512a7c:	f3cb 23c1 	ubfx	r3, fp, #11, #2
  512a80:	7283      	strb	r3, [r0, #10]
  512a82:	f3cb 2341 	ubfx	r3, fp, #9, #2
  512a86:	72c3      	strb	r3, [r0, #11]
  512a88:	f3cb 2300 	ubfx	r3, fp, #8, #1
  512a8c:	7303      	strb	r3, [r0, #12]
  512a8e:	f3cb 13c0 	ubfx	r3, fp, #7, #1
  512a92:	7343      	strb	r3, [r0, #13]
  512a94:	f3cb 1341 	ubfx	r3, fp, #5, #2
  512a98:	7383      	strb	r3, [r0, #14]
  512a9a:	f3cb 1300 	ubfx	r3, fp, #4, #1
  512a9e:	73c3      	strb	r3, [r0, #15]
  512aa0:	f3cb 03c0 	ubfx	r3, fp, #3, #1
  512aa4:	f3c1 010d 	ubfx	r1, r1, #0, #14
  512aa8:	7403      	strb	r3, [r0, #16]
  512aaa:	f00b 0203 	and.w	r2, fp, #3
  512aae:	f3cb 0380 	ubfx	r3, fp, #2, #1
  512ab2:	6041      	str	r1, [r0, #4]
  512ab4:	7443      	strb	r3, [r0, #17]
  512ab6:	7482      	strb	r2, [r0, #18]
  512ab8:	e8bd 8800 	ldmia.w	sp!, {fp, pc}

00512abc <e93196_write_data_trans>:
  512abc:	784b      	ldrb	r3, [r1, #1]
  512abe:	780a      	ldrb	r2, [r1, #0]
  512ac0:	035b      	lsls	r3, r3, #13
  512ac2:	ea43 4342 	orr.w	r3, r3, r2, lsl #17
  512ac6:	7a8a      	ldrb	r2, [r1, #10]
  512ac8:	4313      	orrs	r3, r2
  512aca:	788a      	ldrb	r2, [r1, #2]
  512acc:	ea43 23c2 	orr.w	r3, r3, r2, lsl #11
  512ad0:	78ca      	ldrb	r2, [r1, #3]
  512ad2:	ea43 2342 	orr.w	r3, r3, r2, lsl #9
  512ad6:	790a      	ldrb	r2, [r1, #4]
  512ad8:	ea43 2302 	orr.w	r3, r3, r2, lsl #8
  512adc:	794a      	ldrb	r2, [r1, #5]
  512ade:	ea43 13c2 	orr.w	r3, r3, r2, lsl #7
  512ae2:	798a      	ldrb	r2, [r1, #6]
  512ae4:	ea43 1342 	orr.w	r3, r3, r2, lsl #5
  512ae8:	79ca      	ldrb	r2, [r1, #7]
  512aea:	ea43 1302 	orr.w	r3, r3, r2, lsl #4
  512aee:	7a0a      	ldrb	r2, [r1, #8]
  512af0:	ea43 03c2 	orr.w	r3, r3, r2, lsl #3
  512af4:	7a4a      	ldrb	r2, [r1, #9]
  512af6:	ea43 0382 	orr.w	r3, r3, r2, lsl #2
  512afa:	6003      	str	r3, [r0, #0]
  512afc:	4770      	bx	lr
	...

00512b00 <e93196_read_data_print>:
  512b00:	b570      	push	{r4, r5, r6, lr}
  512b02:	2100      	movs	r1, #0
  512b04:	4c24      	ldr	r4, [pc, #144]	; (512b98 <e93196_read_data_print+0x98>)
  512b06:	7803      	ldrb	r3, [r0, #0]
  512b08:	4a24      	ldr	r2, [pc, #144]	; (512b9c <e93196_read_data_print+0x9c>)
  512b0a:	4605      	mov	r5, r0
  512b0c:	4608      	mov	r0, r1
  512b0e:	47a0      	blx	r4
  512b10:	2100      	movs	r1, #0
  512b12:	686b      	ldr	r3, [r5, #4]
  512b14:	4a22      	ldr	r2, [pc, #136]	; (512ba0 <e93196_read_data_print+0xa0>)
  512b16:	4608      	mov	r0, r1
  512b18:	47a0      	blx	r4
  512b1a:	2100      	movs	r1, #0
  512b1c:	7a2b      	ldrb	r3, [r5, #8]
  512b1e:	4a21      	ldr	r2, [pc, #132]	; (512ba4 <e93196_read_data_print+0xa4>)
  512b20:	4608      	mov	r0, r1
  512b22:	47a0      	blx	r4
  512b24:	2100      	movs	r1, #0
  512b26:	7a6b      	ldrb	r3, [r5, #9]
  512b28:	4a1f      	ldr	r2, [pc, #124]	; (512ba8 <e93196_read_data_print+0xa8>)
  512b2a:	4608      	mov	r0, r1
  512b2c:	47a0      	blx	r4
  512b2e:	2100      	movs	r1, #0
  512b30:	7aab      	ldrb	r3, [r5, #10]
  512b32:	4a1e      	ldr	r2, [pc, #120]	; (512bac <e93196_read_data_print+0xac>)
  512b34:	4608      	mov	r0, r1
  512b36:	47a0      	blx	r4
  512b38:	2100      	movs	r1, #0
  512b3a:	7aeb      	ldrb	r3, [r5, #11]
  512b3c:	4a1c      	ldr	r2, [pc, #112]	; (512bb0 <e93196_read_data_print+0xb0>)
  512b3e:	4608      	mov	r0, r1
  512b40:	47a0      	blx	r4
  512b42:	2100      	movs	r1, #0
  512b44:	7b2b      	ldrb	r3, [r5, #12]
  512b46:	4a1b      	ldr	r2, [pc, #108]	; (512bb4 <e93196_read_data_print+0xb4>)
  512b48:	4608      	mov	r0, r1
  512b4a:	47a0      	blx	r4
  512b4c:	2100      	movs	r1, #0
  512b4e:	7b6b      	ldrb	r3, [r5, #13]
  512b50:	4a19      	ldr	r2, [pc, #100]	; (512bb8 <e93196_read_data_print+0xb8>)
  512b52:	4608      	mov	r0, r1
  512b54:	47a0      	blx	r4
  512b56:	2100      	movs	r1, #0
  512b58:	7bab      	ldrb	r3, [r5, #14]
  512b5a:	4a18      	ldr	r2, [pc, #96]	; (512bbc <e93196_read_data_print+0xbc>)
  512b5c:	4608      	mov	r0, r1
  512b5e:	47a0      	blx	r4
  512b60:	2100      	movs	r1, #0
  512b62:	7beb      	ldrb	r3, [r5, #15]
  512b64:	4a16      	ldr	r2, [pc, #88]	; (512bc0 <e93196_read_data_print+0xc0>)
  512b66:	4608      	mov	r0, r1
  512b68:	47a0      	blx	r4
  512b6a:	2100      	movs	r1, #0
  512b6c:	7c2b      	ldrb	r3, [r5, #16]
  512b6e:	4a15      	ldr	r2, [pc, #84]	; (512bc4 <e93196_read_data_print+0xc4>)
  512b70:	4608      	mov	r0, r1
  512b72:	47a0      	blx	r4
  512b74:	2100      	movs	r1, #0
  512b76:	7c6b      	ldrb	r3, [r5, #17]
  512b78:	4a13      	ldr	r2, [pc, #76]	; (512bc8 <e93196_read_data_print+0xc8>)
  512b7a:	4608      	mov	r0, r1
  512b7c:	47a0      	blx	r4
  512b7e:	2100      	movs	r1, #0
  512b80:	7cab      	ldrb	r3, [r5, #18]
  512b82:	4a12      	ldr	r2, [pc, #72]	; (512bcc <e93196_read_data_print+0xcc>)
  512b84:	4608      	mov	r0, r1
  512b86:	47a0      	blx	r4
  512b88:	2100      	movs	r1, #0
  512b8a:	4623      	mov	r3, r4
  512b8c:	4a10      	ldr	r2, [pc, #64]	; (512bd0 <e93196_read_data_print+0xd0>)
  512b8e:	4608      	mov	r0, r1
  512b90:	e8bd 4070 	ldmia.w	sp!, {r4, r5, r6, lr}
  512b94:	4718      	bx	r3
  512b96:	bf00      	nop
  512b98:	000d3259 	.word	0x000d3259
  512b9c:	00527568 	.word	0x00527568
  512ba0:	00527583 	.word	0x00527583
  512ba4:	0052759e 	.word	0x0052759e
  512ba8:	005275b9 	.word	0x005275b9
  512bac:	005275d4 	.word	0x005275d4
  512bb0:	005275ef 	.word	0x005275ef
  512bb4:	0052760a 	.word	0x0052760a
  512bb8:	00527625 	.word	0x00527625
  512bbc:	00527640 	.word	0x00527640
  512bc0:	0052765b 	.word	0x0052765b
  512bc4:	00527676 	.word	0x00527676
  512bc8:	00527691 	.word	0x00527691
  512bcc:	005276ac 	.word	0x005276ac
  512bd0:	005287a2 	.word	0x005287a2

00512bd4 <e93196_reg_read>:
  512bd4:	b513      	push	{r0, r1, r4, lr}
  512bd6:	2300      	movs	r3, #0
  512bd8:	e9cd 3300 	strd	r3, r3, [sp]
  512bdc:	4b06      	ldr	r3, [pc, #24]	; (512bf8 <e93196_reg_read+0x24>)
  512bde:	4604      	mov	r4, r0
  512be0:	4669      	mov	r1, sp
  512be2:	8818      	ldrh	r0, [r3, #0]
  512be4:	4b05      	ldr	r3, [pc, #20]	; (512bfc <e93196_reg_read+0x28>)
  512be6:	4798      	blx	r3
  512be8:	4669      	mov	r1, sp
  512bea:	4620      	mov	r0, r4
  512bec:	4b04      	ldr	r3, [pc, #16]	; (512c00 <e93196_reg_read+0x2c>)
  512bee:	4798      	blx	r3
  512bf0:	4b04      	ldr	r3, [pc, #16]	; (512c04 <e93196_reg_read+0x30>)
  512bf2:	4798      	blx	r3
  512bf4:	b002      	add	sp, #8
  512bf6:	bd10      	pop	{r4, pc}
  512bf8:	00210290 	.word	0x00210290
  512bfc:	00512985 	.word	0x00512985
  512c00:	00512a55 	.word	0x00512a55
  512c04:	00512b01 	.word	0x00512b01

00512c08 <e93196_write_data_print>:
  512c08:	b570      	push	{r4, r5, r6, lr}
  512c0a:	2100      	movs	r1, #0
  512c0c:	4c1f      	ldr	r4, [pc, #124]	; (512c8c <e93196_write_data_print+0x84>)
  512c0e:	7803      	ldrb	r3, [r0, #0]
  512c10:	4a1f      	ldr	r2, [pc, #124]	; (512c90 <e93196_write_data_print+0x88>)
  512c12:	4605      	mov	r5, r0
  512c14:	4608      	mov	r0, r1
  512c16:	47a0      	blx	r4
  512c18:	2100      	movs	r1, #0
  512c1a:	786b      	ldrb	r3, [r5, #1]
  512c1c:	4a1d      	ldr	r2, [pc, #116]	; (512c94 <e93196_write_data_print+0x8c>)
  512c1e:	4608      	mov	r0, r1
  512c20:	47a0      	blx	r4
  512c22:	2100      	movs	r1, #0
  512c24:	78ab      	ldrb	r3, [r5, #2]
  512c26:	4a1c      	ldr	r2, [pc, #112]	; (512c98 <e93196_write_data_print+0x90>)
  512c28:	4608      	mov	r0, r1
  512c2a:	47a0      	blx	r4
  512c2c:	2100      	movs	r1, #0
  512c2e:	78eb      	ldrb	r3, [r5, #3]
  512c30:	4a1a      	ldr	r2, [pc, #104]	; (512c9c <e93196_write_data_print+0x94>)
  512c32:	4608      	mov	r0, r1
  512c34:	47a0      	blx	r4
  512c36:	2100      	movs	r1, #0
  512c38:	792b      	ldrb	r3, [r5, #4]
  512c3a:	4a19      	ldr	r2, [pc, #100]	; (512ca0 <e93196_write_data_print+0x98>)
  512c3c:	4608      	mov	r0, r1
  512c3e:	47a0      	blx	r4
  512c40:	2100      	movs	r1, #0
  512c42:	796b      	ldrb	r3, [r5, #5]
  512c44:	4a17      	ldr	r2, [pc, #92]	; (512ca4 <e93196_write_data_print+0x9c>)
  512c46:	4608      	mov	r0, r1
  512c48:	47a0      	blx	r4
  512c4a:	2100      	movs	r1, #0
  512c4c:	79ab      	ldrb	r3, [r5, #6]
  512c4e:	4a16      	ldr	r2, [pc, #88]	; (512ca8 <e93196_write_data_print+0xa0>)
  512c50:	4608      	mov	r0, r1
  512c52:	47a0      	blx	r4
  512c54:	2100      	movs	r1, #0
  512c56:	79eb      	ldrb	r3, [r5, #7]
  512c58:	4a14      	ldr	r2, [pc, #80]	; (512cac <e93196_write_data_print+0xa4>)
  512c5a:	4608      	mov	r0, r1
  512c5c:	47a0      	blx	r4
  512c5e:	2100      	movs	r1, #0
  512c60:	7a2b      	ldrb	r3, [r5, #8]
  512c62:	4a13      	ldr	r2, [pc, #76]	; (512cb0 <e93196_write_data_print+0xa8>)
  512c64:	4608      	mov	r0, r1
  512c66:	47a0      	blx	r4
  512c68:	2100      	movs	r1, #0
  512c6a:	7a6b      	ldrb	r3, [r5, #9]
  512c6c:	4a11      	ldr	r2, [pc, #68]	; (512cb4 <e93196_write_data_print+0xac>)
  512c6e:	4608      	mov	r0, r1
  512c70:	47a0      	blx	r4
  512c72:	2100      	movs	r1, #0
  512c74:	7aab      	ldrb	r3, [r5, #10]
  512c76:	4a10      	ldr	r2, [pc, #64]	; (512cb8 <e93196_write_data_print+0xb0>)
  512c78:	4608      	mov	r0, r1
  512c7a:	47a0      	blx	r4
  512c7c:	2100      	movs	r1, #0
  512c7e:	4623      	mov	r3, r4
  512c80:	4a0e      	ldr	r2, [pc, #56]	; (512cbc <e93196_write_data_print+0xb4>)
  512c82:	4608      	mov	r0, r1
  512c84:	e8bd 4070 	ldmia.w	sp!, {r4, r5, r6, lr}
  512c88:	4718      	bx	r3
  512c8a:	bf00      	nop
  512c8c:	000d3259 	.word	0x000d3259
  512c90:	0052759e 	.word	0x0052759e
  512c94:	005275b9 	.word	0x005275b9
  512c98:	005275d4 	.word	0x005275d4
  512c9c:	005275ef 	.word	0x005275ef
  512ca0:	0052760a 	.word	0x0052760a
  512ca4:	00527625 	.word	0x00527625
  512ca8:	00527640 	.word	0x00527640
  512cac:	0052765b 	.word	0x0052765b
  512cb0:	00527676 	.word	0x00527676
  512cb4:	00527691 	.word	0x00527691
  512cb8:	005276ac 	.word	0x005276ac
  512cbc:	005287a2 	.word	0x005287a2

00512cc0 <e93196_reg_write>:
  512cc0:	b537      	push	{r0, r1, r2, r4, r5, lr}
  512cc2:	4b0a      	ldr	r3, [pc, #40]	; (512cec <e93196_reg_write+0x2c>)
  512cc4:	4d0a      	ldr	r5, [pc, #40]	; (512cf0 <e93196_reg_write+0x30>)
  512cc6:	4604      	mov	r4, r0
  512cc8:	4601      	mov	r1, r0
  512cca:	a801      	add	r0, sp, #4
  512ccc:	4798      	blx	r3
  512cce:	4b09      	ldr	r3, [pc, #36]	; (512cf4 <e93196_reg_write+0x34>)
  512cd0:	9901      	ldr	r1, [sp, #4]
  512cd2:	8858      	ldrh	r0, [r3, #2]
  512cd4:	4b08      	ldr	r3, [pc, #32]	; (512cf8 <e93196_reg_write+0x38>)
  512cd6:	4798      	blx	r3
  512cd8:	2100      	movs	r1, #0
  512cda:	9b01      	ldr	r3, [sp, #4]
  512cdc:	4a07      	ldr	r2, [pc, #28]	; (512cfc <e93196_reg_write+0x3c>)
  512cde:	4608      	mov	r0, r1
  512ce0:	47a8      	blx	r5
  512ce2:	4620      	mov	r0, r4
  512ce4:	4b06      	ldr	r3, [pc, #24]	; (512d00 <e93196_reg_write+0x40>)
  512ce6:	4798      	blx	r3
  512ce8:	b003      	add	sp, #12
  512cea:	bd30      	pop	{r4, r5, pc}
  512cec:	00512abd 	.word	0x00512abd
  512cf0:	000d3259 	.word	0x000d3259
  512cf4:	00210290 	.word	0x00210290
  512cf8:	00512a01 	.word	0x00512a01
  512cfc:	005276c7 	.word	0x005276c7
  512d00:	00512c09 	.word	0x00512c09

00512d04 <e93196_init>:
  512d04:	e92d 41f0 	stmdb	sp!, {r4, r5, r6, r7, r8, lr}
  512d08:	4604      	mov	r4, r0
  512d0a:	4d11      	ldr	r5, [pc, #68]	; (512d50 <e93196_init+0x4c>)
  512d0c:	f834 3b04 	ldrh.w	r3, [r4], #4
  512d10:	8840      	ldrh	r0, [r0, #2]
  512d12:	802b      	strh	r3, [r5, #0]
  512d14:	4b0f      	ldr	r3, [pc, #60]	; (512d54 <e93196_init+0x50>)
  512d16:	8068      	strh	r0, [r5, #2]
  512d18:	460e      	mov	r6, r1
  512d1a:	4617      	mov	r7, r2
  512d1c:	4798      	blx	r3
  512d1e:	8828      	ldrh	r0, [r5, #0]
  512d20:	4b0d      	ldr	r3, [pc, #52]	; (512d58 <e93196_init+0x54>)
  512d22:	4798      	blx	r3
  512d24:	4620      	mov	r0, r4
  512d26:	4b0d      	ldr	r3, [pc, #52]	; (512d5c <e93196_init+0x58>)
  512d28:	4798      	blx	r3
  512d2a:	480d      	ldr	r0, [pc, #52]	; (512d60 <e93196_init+0x5c>)
  512d2c:	4b0d      	ldr	r3, [pc, #52]	; (512d64 <e93196_init+0x60>)
  512d2e:	4798      	blx	r3
  512d30:	b166      	cbz	r6, 512d4c <e93196_init+0x48>
  512d32:	8828      	ldrh	r0, [r5, #0]
  512d34:	4b0c      	ldr	r3, [pc, #48]	; (512d68 <e93196_init+0x64>)
  512d36:	2200      	movs	r2, #0
  512d38:	f44f 7102 	mov.w	r1, #520	; 0x208
  512d3c:	4798      	blx	r3
  512d3e:	463a      	mov	r2, r7
  512d40:	4631      	mov	r1, r6
  512d42:	8828      	ldrh	r0, [r5, #0]
  512d44:	4b09      	ldr	r3, [pc, #36]	; (512d6c <e93196_init+0x68>)
  512d46:	e8bd 41f0 	ldmia.w	sp!, {r4, r5, r6, r7, r8, lr}
  512d4a:	4718      	bx	r3
  512d4c:	e8bd 81f0 	ldmia.w	sp!, {r4, r5, r6, r7, r8, pc}
  512d50:	00210290 	.word	0x00210290
  512d54:	00512d81 	.word	0x00512d81
  512d58:	00512da1 	.word	0x00512da1
  512d5c:	00512cc1 	.word	0x00512cc1
  512d60:	0021067c 	.word	0x0021067c
  512d64:	00512bd5 	.word	0x00512bd5
  512d68:	00083271 	.word	0x00083271
  512d6c:	00083321 	.word	0x00083321

00512d70 <e93196_serin_high>:
  512d70:	2201      	movs	r2, #1
  512d72:	f44f 4180 	mov.w	r1, #16384	; 0x4000
  512d76:	4b01      	ldr	r3, [pc, #4]	; (512d7c <e93196_serin_high+0xc>)
  512d78:	4718      	bx	r3
  512d7a:	bf00      	nop
  512d7c:	00083271 	.word	0x00083271

00512d80 <e93196_serin_low>:
  512d80:	2200      	movs	r2, #0
  512d82:	f44f 4180 	mov.w	r1, #16384	; 0x4000
  512d86:	4b01      	ldr	r3, [pc, #4]	; (512d8c <e93196_serin_low+0xc>)
  512d88:	4718      	bx	r3
  512d8a:	bf00      	nop
  512d8c:	00083271 	.word	0x00083271

00512d90 <e93196_doci_high>:
  512d90:	4b00      	ldr	r3, [pc, #0]	; (512d94 <e93196_doci_high+0x4>)
  512d92:	4718      	bx	r3
  512d94:	00512d71 	.word	0x00512d71

00512d98 <e93196_doci_low>:
  512d98:	4b00      	ldr	r3, [pc, #0]	; (512d9c <e93196_doci_low+0x4>)
  512d9a:	4718      	bx	r3
  512d9c:	00512d81 	.word	0x00512d81

00512da0 <e93196_doci_cfg_input>:
  512da0:	2200      	movs	r2, #0
  512da2:	4611      	mov	r1, r2
  512da4:	4b00      	ldr	r3, [pc, #0]	; (512da8 <e93196_doci_cfg_input+0x8>)
  512da6:	4718      	bx	r3
  512da8:	00083271 	.word	0x00083271

00512dac <e93196_doci_ipu>:
  512dac:	2201      	movs	r2, #1
  512dae:	f240 410b 	movw	r1, #1035	; 0x40b
  512db2:	4b01      	ldr	r3, [pc, #4]	; (512db8 <e93196_doci_ipu+0xc>)
  512db4:	4718      	bx	r3
  512db6:	bf00      	nop
  512db8:	00083271 	.word	0x00083271

00512dbc <e93196_doci_ipd>:
  512dbc:	2200      	movs	r2, #0
  512dbe:	f240 2109 	movw	r1, #521	; 0x209
  512dc2:	4b01      	ldr	r3, [pc, #4]	; (512dc8 <e93196_doci_ipd+0xc>)
  512dc4:	4718      	bx	r3
  512dc6:	bf00      	nop
  512dc8:	00083271 	.word	0x00083271

00512dcc <e93196_doci_read>:
  512dcc:	b508      	push	{r3, lr}
  512dce:	4b02      	ldr	r3, [pc, #8]	; (512dd8 <e93196_doci_read+0xc>)
  512dd0:	4798      	blx	r3
  512dd2:	b2c0      	uxtb	r0, r0
  512dd4:	bd08      	pop	{r3, pc}
  512dd6:	bf00      	nop
  512dd8:	00083343 	.word	0x00083343

00512ddc <get_attribute_>:
  512ddc:	b510      	push	{r4, lr}
  512dde:	4a0a      	ldr	r2, [pc, #40]	; (512e08 <get_attribute_+0x2c>)
  512de0:	4603      	mov	r3, r0
  512de2:	2100      	movs	r1, #0
  512de4:	f832 4031 	ldrh.w	r4, [r2, r1, lsl #3]
  512de8:	429c      	cmp	r4, r3
  512dea:	ea4f 00c1 	mov.w	r0, r1, lsl #3
  512dee:	d101      	bne.n	512df4 <get_attribute_+0x18>
  512df0:	4410      	add	r0, r2
  512df2:	bd10      	pop	{r4, pc}
  512df4:	3101      	adds	r1, #1
  512df6:	290b      	cmp	r1, #11
  512df8:	d1f4      	bne.n	512de4 <get_attribute_+0x8>
  512dfa:	2100      	movs	r1, #0
  512dfc:	4a03      	ldr	r2, [pc, #12]	; (512e0c <get_attribute_+0x30>)
  512dfe:	4c04      	ldr	r4, [pc, #16]	; (512e10 <get_attribute_+0x34>)
  512e00:	4608      	mov	r0, r1
  512e02:	47a0      	blx	r4
  512e04:	2000      	movs	r0, #0
  512e06:	e7f4      	b.n	512df2 <get_attribute_+0x16>
  512e08:	0020fcc0 	.word	0x0020fcc0
  512e0c:	005276d9 	.word	0x005276d9
  512e10:	000d3259 	.word	0x000d3259

00512e14 <mesh_write_handler>:
  512e14:	880b      	ldrh	r3, [r1, #0]
  512e16:	b5f7      	push	{r0, r1, r2, r4, r5, r6, r7, lr}
  512e18:	f103 02ff 	add.w	r2, r3, #255	; 0xff
  512e1c:	b292      	uxth	r2, r2
  512e1e:	2a06      	cmp	r2, #6
  512e20:	4607      	mov	r7, r0
  512e22:	460c      	mov	r4, r1
  512e24:	894d      	ldrh	r5, [r1, #10]
  512e26:	d82c      	bhi.n	512e82 <mesh_write_handler+0x6e>
  512e28:	f64f 7202 	movw	r2, #65282	; 0xff02
  512e2c:	4293      	cmp	r3, r2
  512e2e:	d003      	beq.n	512e38 <mesh_write_handler+0x24>
  512e30:	f64f 7205 	movw	r2, #65285	; 0xff05
  512e34:	4293      	cmp	r3, r2
  512e36:	d11f      	bne.n	512e78 <mesh_write_handler+0x64>
  512e38:	4628      	mov	r0, r5
  512e3a:	4b41      	ldr	r3, [pc, #260]	; (512f40 <mesh_write_handler+0x12c>)
  512e3c:	4798      	blx	r3
  512e3e:	8962      	ldrh	r2, [r4, #10]
  512e40:	4605      	mov	r5, r0
  512e42:	b940      	cbnz	r0, 512e56 <mesh_write_handler+0x42>
  512e44:	4613      	mov	r3, r2
  512e46:	4c3f      	ldr	r4, [pc, #252]	; (512f44 <mesh_write_handler+0x130>)
  512e48:	4a3f      	ldr	r2, [pc, #252]	; (512f48 <mesh_write_handler+0x134>)
  512e4a:	4601      	mov	r1, r0
  512e4c:	47a0      	blx	r4
  512e4e:	2480      	movs	r4, #128	; 0x80
  512e50:	4620      	mov	r0, r4
  512e52:	b003      	add	sp, #12
  512e54:	bdf0      	pop	{r4, r5, r6, r7, pc}
  512e56:	9200      	str	r2, [sp, #0]
  512e58:	4603      	mov	r3, r0
  512e5a:	68e1      	ldr	r1, [r4, #12]
  512e5c:	4e3b      	ldr	r6, [pc, #236]	; (512f4c <mesh_write_handler+0x138>)
  512e5e:	2000      	movs	r0, #0
  512e60:	47b0      	blx	r6
  512e62:	60e5      	str	r5, [r4, #12]
  512e64:	8160      	strh	r0, [r4, #10]
  512e66:	4621      	mov	r1, r4
  512e68:	4638      	mov	r0, r7
  512e6a:	4b39      	ldr	r3, [pc, #228]	; (512f50 <mesh_write_handler+0x13c>)
  512e6c:	4798      	blx	r3
  512e6e:	4b39      	ldr	r3, [pc, #228]	; (512f54 <mesh_write_handler+0x140>)
  512e70:	4604      	mov	r4, r0
  512e72:	4628      	mov	r0, r5
  512e74:	4798      	blx	r3
  512e76:	e7eb      	b.n	512e50 <mesh_write_handler+0x3c>
  512e78:	4b35      	ldr	r3, [pc, #212]	; (512f50 <mesh_write_handler+0x13c>)
  512e7a:	b003      	add	sp, #12
  512e7c:	e8bd 40f0 	ldmia.w	sp!, {r4, r5, r6, r7, lr}
  512e80:	4718      	bx	r3
  512e82:	2b32      	cmp	r3, #50	; 0x32
  512e84:	68ce      	ldr	r6, [r1, #12]
  512e86:	d046      	beq.n	512f16 <mesh_write_handler+0x102>
  512e88:	d817      	bhi.n	512eba <mesh_write_handler+0xa6>
  512e8a:	2b2a      	cmp	r3, #42	; 0x2a
  512e8c:	d035      	beq.n	512efa <mesh_write_handler+0xe6>
  512e8e:	2b2d      	cmp	r3, #45	; 0x2d
  512e90:	d14d      	bne.n	512f2e <mesh_write_handler+0x11a>
  512e92:	4618      	mov	r0, r3
  512e94:	4b30      	ldr	r3, [pc, #192]	; (512f58 <mesh_write_handler+0x144>)
  512e96:	4798      	blx	r3
  512e98:	4604      	mov	r4, r0
  512e9a:	2800      	cmp	r0, #0
  512e9c:	d0d8      	beq.n	512e50 <mesh_write_handler+0x3c>
  512e9e:	8842      	ldrh	r2, [r0, #2]
  512ea0:	4b2e      	ldr	r3, [pc, #184]	; (512f5c <mesh_write_handler+0x148>)
  512ea2:	6840      	ldr	r0, [r0, #4]
  512ea4:	2100      	movs	r1, #0
  512ea6:	4798      	blx	r3
  512ea8:	8862      	ldrh	r2, [r4, #2]
  512eaa:	6860      	ldr	r0, [r4, #4]
  512eac:	4b2c      	ldr	r3, [pc, #176]	; (512f60 <mesh_write_handler+0x14c>)
  512eae:	42aa      	cmp	r2, r5
  512eb0:	bf28      	it	cs
  512eb2:	462a      	movcs	r2, r5
  512eb4:	4631      	mov	r1, r6
  512eb6:	4798      	blx	r3
  512eb8:	e037      	b.n	512f2a <mesh_write_handler+0x116>
  512eba:	2b52      	cmp	r3, #82	; 0x52
  512ebc:	d003      	beq.n	512ec6 <mesh_write_handler+0xb2>
  512ebe:	2b53      	cmp	r3, #83	; 0x53
  512ec0:	d0e7      	beq.n	512e92 <mesh_write_handler+0x7e>
  512ec2:	2b35      	cmp	r3, #53	; 0x35
  512ec4:	e7e4      	b.n	512e90 <mesh_write_handler+0x7c>
  512ec6:	4b27      	ldr	r3, [pc, #156]	; (512f64 <mesh_write_handler+0x150>)
  512ec8:	4798      	blx	r3
  512eca:	4601      	mov	r1, r0
  512ecc:	b920      	cbnz	r0, 512ed8 <mesh_write_handler+0xc4>
  512ece:	4a26      	ldr	r2, [pc, #152]	; (512f68 <mesh_write_handler+0x154>)
  512ed0:	4b1c      	ldr	r3, [pc, #112]	; (512f44 <mesh_write_handler+0x130>)
  512ed2:	4798      	blx	r3
  512ed4:	2482      	movs	r4, #130	; 0x82
  512ed6:	e7bb      	b.n	512e50 <mesh_write_handler+0x3c>
  512ed8:	7833      	ldrb	r3, [r6, #0]
  512eda:	2b04      	cmp	r3, #4
  512edc:	d125      	bne.n	512f2a <mesh_write_handler+0x116>
  512ede:	2d01      	cmp	r5, #1
  512ee0:	d12c      	bne.n	512f3c <mesh_write_handler+0x128>
  512ee2:	2100      	movs	r1, #0
  512ee4:	4a21      	ldr	r2, [pc, #132]	; (512f6c <mesh_write_handler+0x158>)
  512ee6:	4b17      	ldr	r3, [pc, #92]	; (512f44 <mesh_write_handler+0x130>)
  512ee8:	4608      	mov	r0, r1
  512eea:	4798      	blx	r3
  512eec:	4b20      	ldr	r3, [pc, #128]	; (512f70 <mesh_write_handler+0x15c>)
  512eee:	2000      	movs	r0, #0
  512ef0:	4798      	blx	r3
  512ef2:	4b20      	ldr	r3, [pc, #128]	; (512f74 <mesh_write_handler+0x160>)
  512ef4:	2400      	movs	r4, #0
  512ef6:	601c      	str	r4, [r3, #0]
  512ef8:	e7aa      	b.n	512e50 <mesh_write_handler+0x3c>
  512efa:	4b1a      	ldr	r3, [pc, #104]	; (512f64 <mesh_write_handler+0x150>)
  512efc:	4798      	blx	r3
  512efe:	4604      	mov	r4, r0
  512f00:	b118      	cbz	r0, 512f0a <mesh_write_handler+0xf6>
  512f02:	2100      	movs	r1, #0
  512f04:	4a1c      	ldr	r2, [pc, #112]	; (512f78 <mesh_write_handler+0x164>)
  512f06:	4608      	mov	r0, r1
  512f08:	e7e2      	b.n	512ed0 <mesh_write_handler+0xbc>
  512f0a:	b2eb      	uxtb	r3, r5
  512f0c:	4632      	mov	r2, r6
  512f0e:	4639      	mov	r1, r7
  512f10:	4d1a      	ldr	r5, [pc, #104]	; (512f7c <mesh_write_handler+0x168>)
  512f12:	47a8      	blx	r5
  512f14:	e79c      	b.n	512e50 <mesh_write_handler+0x3c>
  512f16:	4b13      	ldr	r3, [pc, #76]	; (512f64 <mesh_write_handler+0x150>)
  512f18:	4798      	blx	r3
  512f1a:	4601      	mov	r1, r0
  512f1c:	b908      	cbnz	r0, 512f22 <mesh_write_handler+0x10e>
  512f1e:	4a18      	ldr	r2, [pc, #96]	; (512f80 <mesh_write_handler+0x16c>)
  512f20:	e7d6      	b.n	512ed0 <mesh_write_handler+0xbc>
  512f22:	b2e9      	uxtb	r1, r5
  512f24:	4630      	mov	r0, r6
  512f26:	4b17      	ldr	r3, [pc, #92]	; (512f84 <mesh_write_handler+0x170>)
  512f28:	4798      	blx	r3
  512f2a:	2400      	movs	r4, #0
  512f2c:	e790      	b.n	512e50 <mesh_write_handler+0x3c>
  512f2e:	2100      	movs	r1, #0
  512f30:	4a15      	ldr	r2, [pc, #84]	; (512f88 <mesh_write_handler+0x174>)
  512f32:	4b04      	ldr	r3, [pc, #16]	; (512f44 <mesh_write_handler+0x130>)
  512f34:	4608      	mov	r0, r1
  512f36:	4798      	blx	r3
  512f38:	2401      	movs	r4, #1
  512f3a:	e789      	b.n	512e50 <mesh_write_handler+0x3c>
  512f3c:	240d      	movs	r4, #13
  512f3e:	e787      	b.n	512e50 <mesh_write_handler+0x3c>
  512f40:	00050d61 	.word	0x00050d61
  512f44:	000d3259 	.word	0x000d3259
  512f48:	005276fc 	.word	0x005276fc
  512f4c:	0051a1f1 	.word	0x0051a1f1
  512f50:	00514e71 	.word	0x00514e71
  512f54:	00050d65 	.word	0x00050d65
  512f58:	00512ddd 	.word	0x00512ddd
  512f5c:	00006d41 	.word	0x00006d41
  512f60:	00006d31 	.word	0x00006d31
  512f64:	00514385 	.word	0x00514385
  512f68:	0052771a 	.word	0x0052771a
  512f6c:	0052774e 	.word	0x0052774e
  512f70:	005179f1 	.word	0x005179f1
  512f74:	002102ec 	.word	0x002102ec
  512f78:	00527769 	.word	0x00527769
  512f7c:	005193c1 	.word	0x005193c1
  512f80:	0052779e 	.word	0x0052779e
  512f84:	00516795 	.word	0x00516795
  512f88:	005277ce 	.word	0x005277ce

00512f8c <mesh_ota_firmware_upgrade_send_data_callback>:
  512f8c:	e92d 43f7 	stmdb	sp!, {r0, r1, r2, r4, r5, r6, r7, r8, r9, lr}
  512f90:	4681      	mov	r9, r0
  512f92:	461d      	mov	r5, r3
  512f94:	2080      	movs	r0, #128	; 0x80
  512f96:	4b18      	ldr	r3, [pc, #96]	; (512ff8 <mesh_ota_firmware_upgrade_send_data_callback+0x6c>)
  512f98:	f8df 8078 	ldr.w	r8, [pc, #120]	; 513014 <mesh_ota_firmware_upgrade_send_data_callback+0x88>
  512f9c:	460e      	mov	r6, r1
  512f9e:	4617      	mov	r7, r2
  512fa0:	4798      	blx	r3
  512fa2:	2380      	movs	r3, #128	; 0x80
  512fa4:	4604      	mov	r4, r0
  512fa6:	b938      	cbnz	r0, 512fb8 <mesh_ota_firmware_upgrade_send_data_callback+0x2c>
  512fa8:	4a14      	ldr	r2, [pc, #80]	; (512ffc <mesh_ota_firmware_upgrade_send_data_callback+0x70>)
  512faa:	4601      	mov	r1, r0
  512fac:	47c0      	blx	r8
  512fae:	2580      	movs	r5, #128	; 0x80
  512fb0:	4628      	mov	r0, r5
  512fb2:	b003      	add	sp, #12
  512fb4:	e8bd 83f0 	ldmia.w	sp!, {r4, r5, r6, r7, r8, r9, pc}
  512fb8:	462a      	mov	r2, r5
  512fba:	9300      	str	r3, [sp, #0]
  512fbc:	990a      	ldr	r1, [sp, #40]	; 0x28
  512fbe:	4d10      	ldr	r5, [pc, #64]	; (513000 <mesh_ota_firmware_upgrade_send_data_callback+0x74>)
  512fc0:	4603      	mov	r3, r0
  512fc2:	2001      	movs	r0, #1
  512fc4:	47a8      	blx	r5
  512fc6:	2100      	movs	r1, #0
  512fc8:	4605      	mov	r5, r0
  512fca:	4603      	mov	r3, r0
  512fcc:	4a0d      	ldr	r2, [pc, #52]	; (513004 <mesh_ota_firmware_upgrade_send_data_callback+0x78>)
  512fce:	4608      	mov	r0, r1
  512fd0:	47c0      	blx	r8
  512fd2:	b17d      	cbz	r5, 512ff4 <mesh_ota_firmware_upgrade_send_data_callback+0x68>
  512fd4:	4623      	mov	r3, r4
  512fd6:	462a      	mov	r2, r5
  512fd8:	4639      	mov	r1, r7
  512fda:	4630      	mov	r0, r6
  512fdc:	f1b9 0f00 	cmp.w	r9, #0
  512fe0:	d006      	beq.n	512ff0 <mesh_ota_firmware_upgrade_send_data_callback+0x64>
  512fe2:	4d09      	ldr	r5, [pc, #36]	; (513008 <mesh_ota_firmware_upgrade_send_data_callback+0x7c>)
  512fe4:	47a8      	blx	r5
  512fe6:	4605      	mov	r5, r0
  512fe8:	4620      	mov	r0, r4
  512fea:	4b08      	ldr	r3, [pc, #32]	; (51300c <mesh_ota_firmware_upgrade_send_data_callback+0x80>)
  512fec:	4798      	blx	r3
  512fee:	e7df      	b.n	512fb0 <mesh_ota_firmware_upgrade_send_data_callback+0x24>
  512ff0:	4d07      	ldr	r5, [pc, #28]	; (513010 <mesh_ota_firmware_upgrade_send_data_callback+0x84>)
  512ff2:	e7f7      	b.n	512fe4 <mesh_ota_firmware_upgrade_send_data_callback+0x58>
  512ff4:	2581      	movs	r5, #129	; 0x81
  512ff6:	e7f7      	b.n	512fe8 <mesh_ota_firmware_upgrade_send_data_callback+0x5c>
  512ff8:	00050d61 	.word	0x00050d61
  512ffc:	005277f1 	.word	0x005277f1
  513000:	0051a1f1 	.word	0x0051a1f1
  513004:	0052782e 	.word	0x0052782e
  513008:	000d2993 	.word	0x000d2993
  51300c:	00050d65 	.word	0x00050d65
  513010:	000d2981 	.word	0x000d2981
  513014:	000d3259 	.word	0x000d3259

00513018 <mesh_app_gatt_init>:
  513018:	b510      	push	{r4, lr}
  51301a:	4b05      	ldr	r3, [pc, #20]	; (513030 <mesh_app_gatt_init+0x18>)
  51301c:	4805      	ldr	r0, [pc, #20]	; (513034 <mesh_app_gatt_init+0x1c>)
  51301e:	4798      	blx	r3
  513020:	2208      	movs	r2, #8
  513022:	2100      	movs	r1, #0
  513024:	4804      	ldr	r0, [pc, #16]	; (513038 <mesh_app_gatt_init+0x20>)
  513026:	4b05      	ldr	r3, [pc, #20]	; (51303c <mesh_app_gatt_init+0x24>)
  513028:	e8bd 4010 	ldmia.w	sp!, {r4, lr}
  51302c:	4718      	bx	r3
  51302e:	bf00      	nop
  513030:	0008308f 	.word	0x0008308f
  513034:	00513225 	.word	0x00513225
  513038:	00210690 	.word	0x00210690
  51303c:	00006d41 	.word	0x00006d41

00513040 <mesh_app_gatt_db_init>:
  513040:	b570      	push	{r4, r5, r6, lr}
  513042:	4b0b      	ldr	r3, [pc, #44]	; (513070 <mesh_app_gatt_db_init+0x30>)
  513044:	4c0b      	ldr	r4, [pc, #44]	; (513074 <mesh_app_gatt_db_init+0x34>)
  513046:	b958      	cbnz	r0, 513060 <mesh_app_gatt_db_init+0x20>
  513048:	f44f 718c 	mov.w	r1, #280	; 0x118
  51304c:	480a      	ldr	r0, [pc, #40]	; (513078 <mesh_app_gatt_db_init+0x38>)
  51304e:	4798      	blx	r3
  513050:	4a0a      	ldr	r2, [pc, #40]	; (51307c <mesh_app_gatt_db_init+0x3c>)
  513052:	4603      	mov	r3, r0
  513054:	2100      	movs	r1, #0
  513056:	46a4      	mov	ip, r4
  513058:	4608      	mov	r0, r1
  51305a:	e8bd 4070 	ldmia.w	sp!, {r4, r5, r6, lr}
  51305e:	4760      	bx	ip
  513060:	f44f 719d 	mov.w	r1, #314	; 0x13a
  513064:	4806      	ldr	r0, [pc, #24]	; (513080 <mesh_app_gatt_db_init+0x40>)
  513066:	4798      	blx	r3
  513068:	4a06      	ldr	r2, [pc, #24]	; (513084 <mesh_app_gatt_db_init+0x44>)
  51306a:	4603      	mov	r3, r0
  51306c:	e7f2      	b.n	513054 <mesh_app_gatt_db_init+0x14>
  51306e:	bf00      	nop
  513070:	000d29c3 	.word	0x000d29c3
  513074:	000d3259 	.word	0x000d3259
  513078:	0020fd18 	.word	0x0020fd18
  51307c:	0052786d 	.word	0x0052786d
  513080:	0020fe30 	.word	0x0020fe30
  513084:	005278a5 	.word	0x005278a5

00513088 <mesh_cfm_handler>:
  513088:	f101 03ff 	add.w	r3, r1, #255	; 0xff
  51308c:	b29b      	uxth	r3, r3
  51308e:	2b06      	cmp	r3, #6
  513090:	d801      	bhi.n	513096 <mesh_cfm_handler+0xe>
  513092:	4b02      	ldr	r3, [pc, #8]	; (51309c <mesh_cfm_handler+0x14>)
  513094:	4718      	bx	r3
  513096:	2001      	movs	r0, #1
  513098:	4770      	bx	lr
  51309a:	bf00      	nop
  51309c:	00515371 	.word	0x00515371

005130a0 <mesh_gatts_req_cb>:
  5130a0:	b57f      	push	{r0, r1, r2, r3, r4, r5, r6, lr}
  5130a2:	7883      	ldrb	r3, [r0, #2]
  5130a4:	3b01      	subs	r3, #1
  5130a6:	4604      	mov	r4, r0
  5130a8:	2b05      	cmp	r3, #5
  5130aa:	f200 809c 	bhi.w	5131e6 <mesh_gatts_req_cb+0x146>
  5130ae:	e8df f003 	tbb	[pc, r3]
  5130b2:	4703      	.short	0x4703
  5130b4:	958b6d4c 	.word	0x958b6d4c
  5130b8:	8880      	ldrh	r0, [r0, #4]
  5130ba:	f100 03ff 	add.w	r3, r0, #255	; 0xff
  5130be:	b29b      	uxth	r3, r3
  5130c0:	2b06      	cmp	r3, #6
  5130c2:	d805      	bhi.n	5130d0 <mesh_gatts_req_cb+0x30>
  5130c4:	1d21      	adds	r1, r4, #4
  5130c6:	8820      	ldrh	r0, [r4, #0]
  5130c8:	4b48      	ldr	r3, [pc, #288]	; (5131ec <mesh_gatts_req_cb+0x14c>)
  5130ca:	4798      	blx	r3
  5130cc:	4604      	mov	r4, r0
  5130ce:	e034      	b.n	51313a <mesh_gatts_req_cb+0x9a>
  5130d0:	4b47      	ldr	r3, [pc, #284]	; (5131f0 <mesh_gatts_req_cb+0x150>)
  5130d2:	4798      	blx	r3
  5130d4:	4605      	mov	r5, r0
  5130d6:	2800      	cmp	r0, #0
  5130d8:	d02e      	beq.n	513138 <mesh_gatts_req_cb+0x98>
  5130da:	88a2      	ldrh	r2, [r4, #4]
  5130dc:	8843      	ldrh	r3, [r0, #2]
  5130de:	2a16      	cmp	r2, #22
  5130e0:	d119      	bne.n	513116 <mesh_gatts_req_cb+0x76>
  5130e2:	b92b      	cbnz	r3, 5130f0 <mesh_gatts_req_cb+0x50>
  5130e4:	4b43      	ldr	r3, [pc, #268]	; (5131f4 <mesh_gatts_req_cb+0x154>)
  5130e6:	6818      	ldr	r0, [r3, #0]
  5130e8:	6068      	str	r0, [r5, #4]
  5130ea:	4b43      	ldr	r3, [pc, #268]	; (5131f8 <mesh_gatts_req_cb+0x158>)
  5130ec:	4798      	blx	r3
  5130ee:	8068      	strh	r0, [r5, #2]
  5130f0:	886a      	ldrh	r2, [r5, #2]
  5130f2:	88e1      	ldrh	r1, [r4, #6]
  5130f4:	428a      	cmp	r2, r1
  5130f6:	d90c      	bls.n	513112 <mesh_gatts_req_cb+0x72>
  5130f8:	b15a      	cbz	r2, 513112 <mesh_gatts_req_cb+0x72>
  5130fa:	68e0      	ldr	r0, [r4, #12]
  5130fc:	8803      	ldrh	r3, [r0, #0]
  5130fe:	1a52      	subs	r2, r2, r1
  513100:	429a      	cmp	r2, r3
  513102:	bfa8      	it	ge
  513104:	461a      	movge	r2, r3
  513106:	686b      	ldr	r3, [r5, #4]
  513108:	8002      	strh	r2, [r0, #0]
  51310a:	4419      	add	r1, r3
  51310c:	6920      	ldr	r0, [r4, #16]
  51310e:	4b3b      	ldr	r3, [pc, #236]	; (5131fc <mesh_gatts_req_cb+0x15c>)
  513110:	4798      	blx	r3
  513112:	2400      	movs	r4, #0
  513114:	e011      	b.n	51313a <mesh_gatts_req_cb+0x9a>
  513116:	2a18      	cmp	r2, #24
  513118:	d1ea      	bne.n	5130f0 <mesh_gatts_req_cb+0x50>
  51311a:	2b00      	cmp	r3, #0
  51311c:	d1e8      	bne.n	5130f0 <mesh_gatts_req_cb+0x50>
  51311e:	4b35      	ldr	r3, [pc, #212]	; (5131f4 <mesh_gatts_req_cb+0x154>)
  513120:	f8b3 305c 	ldrh.w	r3, [r3, #92]	; 0x5c
  513124:	f88d 3000 	strb.w	r3, [sp]
  513128:	0a1b      	lsrs	r3, r3, #8
  51312a:	f88d 3001 	strb.w	r3, [sp, #1]
  51312e:	2302      	movs	r3, #2
  513130:	f8c0 d004 	str.w	sp, [r0, #4]
  513134:	8043      	strh	r3, [r0, #2]
  513136:	e7db      	b.n	5130f0 <mesh_gatts_req_cb+0x50>
  513138:	2401      	movs	r4, #1
  51313a:	4620      	mov	r0, r4
  51313c:	b004      	add	sp, #16
  51313e:	bd70      	pop	{r4, r5, r6, pc}
  513140:	1d01      	adds	r1, r0, #4
  513142:	4b2f      	ldr	r3, [pc, #188]	; (513200 <mesh_gatts_req_cb+0x160>)
  513144:	8800      	ldrh	r0, [r0, #0]
  513146:	4798      	blx	r3
  513148:	e7c0      	b.n	5130cc <mesh_gatts_req_cb+0x2c>
  51314a:	4e2e      	ldr	r6, [pc, #184]	; (513204 <mesh_gatts_req_cb+0x164>)
  51314c:	6833      	ldr	r3, [r6, #0]
  51314e:	4635      	mov	r5, r6
  513150:	b13b      	cbz	r3, 513162 <mesh_gatts_req_cb+0xc2>
  513152:	89a3      	ldrh	r3, [r4, #12]
  513154:	89e2      	ldrh	r2, [r4, #14]
  513156:	1899      	adds	r1, r3, r2
  513158:	f5b1 7f00 	cmp.w	r1, #512	; 0x200
  51315c:	dd0a      	ble.n	513174 <mesh_gatts_req_cb+0xd4>
  51315e:	2411      	movs	r4, #17
  513160:	e7eb      	b.n	51313a <mesh_gatts_req_cb+0x9a>
  513162:	f44f 7000 	mov.w	r0, #512	; 0x200
  513166:	4b28      	ldr	r3, [pc, #160]	; (513208 <mesh_gatts_req_cb+0x168>)
  513168:	4798      	blx	r3
  51316a:	6030      	str	r0, [r6, #0]
  51316c:	2800      	cmp	r0, #0
  51316e:	d1f0      	bne.n	513152 <mesh_gatts_req_cb+0xb2>
  513170:	2409      	movs	r4, #9
  513172:	e7e2      	b.n	51313a <mesh_gatts_req_cb+0x9a>
  513174:	6828      	ldr	r0, [r5, #0]
  513176:	88a1      	ldrh	r1, [r4, #4]
  513178:	80e9      	strh	r1, [r5, #6]
  51317a:	4418      	add	r0, r3
  51317c:	6921      	ldr	r1, [r4, #16]
  51317e:	4b1f      	ldr	r3, [pc, #124]	; (5131fc <mesh_gatts_req_cb+0x15c>)
  513180:	4798      	blx	r3
  513182:	89a3      	ldrh	r3, [r4, #12]
  513184:	89e2      	ldrh	r2, [r4, #14]
  513186:	4413      	add	r3, r2
  513188:	80ab      	strh	r3, [r5, #4]
  51318a:	e7c2      	b.n	513112 <mesh_gatts_req_cb+0x72>
  51318c:	4d1d      	ldr	r5, [pc, #116]	; (513204 <mesh_gatts_req_cb+0x164>)
  51318e:	682b      	ldr	r3, [r5, #0]
  513190:	2b00      	cmp	r3, #0
  513192:	d0e4      	beq.n	51315e <mesh_gatts_req_cb+0xbe>
  513194:	8804      	ldrh	r4, [r0, #0]
  513196:	4b1d      	ldr	r3, [pc, #116]	; (51320c <mesh_gatts_req_cb+0x16c>)
  513198:	2210      	movs	r2, #16
  51319a:	2100      	movs	r1, #0
  51319c:	4668      	mov	r0, sp
  51319e:	4798      	blx	r3
  5131a0:	88eb      	ldrh	r3, [r5, #6]
  5131a2:	f8ad 3000 	strh.w	r3, [sp]
  5131a6:	682b      	ldr	r3, [r5, #0]
  5131a8:	9303      	str	r3, [sp, #12]
  5131aa:	88ab      	ldrh	r3, [r5, #4]
  5131ac:	f8ad 300a 	strh.w	r3, [sp, #10]
  5131b0:	2600      	movs	r6, #0
  5131b2:	4669      	mov	r1, sp
  5131b4:	4620      	mov	r0, r4
  5131b6:	4b12      	ldr	r3, [pc, #72]	; (513200 <mesh_gatts_req_cb+0x160>)
  5131b8:	9601      	str	r6, [sp, #4]
  5131ba:	4798      	blx	r3
  5131bc:	4b14      	ldr	r3, [pc, #80]	; (513210 <mesh_gatts_req_cb+0x170>)
  5131be:	4604      	mov	r4, r0
  5131c0:	6828      	ldr	r0, [r5, #0]
  5131c2:	4798      	blx	r3
  5131c4:	602e      	str	r6, [r5, #0]
  5131c6:	e7b8      	b.n	51313a <mesh_gatts_req_cb+0x9a>
  5131c8:	2100      	movs	r1, #0
  5131ca:	8883      	ldrh	r3, [r0, #4]
  5131cc:	4a11      	ldr	r2, [pc, #68]	; (513214 <mesh_gatts_req_cb+0x174>)
  5131ce:	4d12      	ldr	r5, [pc, #72]	; (513218 <mesh_gatts_req_cb+0x178>)
  5131d0:	4608      	mov	r0, r1
  5131d2:	47a8      	blx	r5
  5131d4:	88a0      	ldrh	r0, [r4, #4]
  5131d6:	4b11      	ldr	r3, [pc, #68]	; (51321c <mesh_gatts_req_cb+0x17c>)
  5131d8:	4798      	blx	r3
  5131da:	e79a      	b.n	513112 <mesh_gatts_req_cb+0x72>
  5131dc:	8881      	ldrh	r1, [r0, #4]
  5131de:	4b10      	ldr	r3, [pc, #64]	; (513220 <mesh_gatts_req_cb+0x180>)
  5131e0:	8800      	ldrh	r0, [r0, #0]
  5131e2:	4798      	blx	r3
  5131e4:	e772      	b.n	5130cc <mesh_gatts_req_cb+0x2c>
  5131e6:	2404      	movs	r4, #4
  5131e8:	e7a7      	b.n	51313a <mesh_gatts_req_cb+0x9a>
  5131ea:	bf00      	nop
  5131ec:	00514e21 	.word	0x00514e21
  5131f0:	00512ddd 	.word	0x00512ddd
  5131f4:	0020ff94 	.word	0x0020ff94
  5131f8:	00055ad3 	.word	0x00055ad3
  5131fc:	00006d31 	.word	0x00006d31
  513200:	00512e15 	.word	0x00512e15
  513204:	00210690 	.word	0x00210690
  513208:	00050d61 	.word	0x00050d61
  51320c:	00006d41 	.word	0x00006d41
  513210:	00050d65 	.word	0x00050d65
  513214:	005278db 	.word	0x005278db
  513218:	000d3259 	.word	0x000d3259
  51321c:	00516959 	.word	0x00516959
  513220:	00513089 	.word	0x00513089

00513224 <mesh_gatts_callback>:
  513224:	b570      	push	{r4, r5, r6, lr}
  513226:	460c      	mov	r4, r1
  513228:	b088      	sub	sp, #32
  51322a:	4605      	mov	r5, r0
  51322c:	b118      	cbz	r0, 513236 <mesh_gatts_callback+0x12>
  51322e:	2804      	cmp	r0, #4
  513230:	d035      	beq.n	51329e <mesh_gatts_callback+0x7a>
  513232:	2004      	movs	r0, #4
  513234:	e02f      	b.n	513296 <mesh_gatts_callback+0x72>
  513236:	4b1c      	ldr	r3, [pc, #112]	; (5132a8 <mesh_gatts_callback+0x84>)
  513238:	688e      	ldr	r6, [r1, #8]
  51323a:	4798      	blx	r3
  51323c:	89a3      	ldrh	r3, [r4, #12]
  51323e:	9302      	str	r3, [sp, #8]
  513240:	88e3      	ldrh	r3, [r4, #6]
  513242:	4a1a      	ldr	r2, [pc, #104]	; (5132ac <mesh_gatts_callback+0x88>)
  513244:	e9cd 0300 	strd	r0, r3, [sp]
  513248:	4629      	mov	r1, r5
  51324a:	4633      	mov	r3, r6
  51324c:	4628      	mov	r0, r5
  51324e:	4d18      	ldr	r5, [pc, #96]	; (5132b0 <mesh_gatts_callback+0x8c>)
  513250:	47a8      	blx	r5
  513252:	4b18      	ldr	r3, [pc, #96]	; (5132b4 <mesh_gatts_callback+0x90>)
  513254:	689b      	ldr	r3, [r3, #8]
  513256:	b10b      	cbz	r3, 51325c <mesh_gatts_callback+0x38>
  513258:	4620      	mov	r0, r4
  51325a:	4798      	blx	r3
  51325c:	68a3      	ldr	r3, [r4, #8]
  51325e:	4e16      	ldr	r6, [pc, #88]	; (5132b8 <mesh_gatts_callback+0x94>)
  513260:	b103      	cbz	r3, 513264 <mesh_gatts_callback+0x40>
  513262:	88e3      	ldrh	r3, [r4, #6]
  513264:	8033      	strh	r3, [r6, #0]
  513266:	8830      	ldrh	r0, [r6, #0]
  513268:	b9b8      	cbnz	r0, 51329a <mesh_gatts_callback+0x76>
  51326a:	89a2      	ldrh	r2, [r4, #12]
  51326c:	4d13      	ldr	r5, [pc, #76]	; (5132bc <mesh_gatts_callback+0x98>)
  51326e:	2314      	movs	r3, #20
  513270:	2100      	movs	r1, #0
  513272:	47a8      	blx	r5
  513274:	8833      	ldrh	r3, [r6, #0]
  513276:	2500      	movs	r5, #0
  513278:	a808      	add	r0, sp, #32
  51327a:	1b5a      	subs	r2, r3, r5
  51327c:	9505      	str	r5, [sp, #20]
  51327e:	f8ad 3016 	strh.w	r3, [sp, #22]
  513282:	6823      	ldr	r3, [r4, #0]
  513284:	f840 3d10 	str.w	r3, [r0, #-16]!
  513288:	bf18      	it	ne
  51328a:	2201      	movne	r2, #1
  51328c:	9507      	str	r5, [sp, #28]
  51328e:	4b0c      	ldr	r3, [pc, #48]	; (5132c0 <mesh_gatts_callback+0x9c>)
  513290:	9206      	str	r2, [sp, #24]
  513292:	4798      	blx	r3
  513294:	4628      	mov	r0, r5
  513296:	b008      	add	sp, #32
  513298:	bd70      	pop	{r4, r5, r6, pc}
  51329a:	2200      	movs	r2, #0
  51329c:	e7e6      	b.n	51326c <mesh_gatts_callback+0x48>
  51329e:	4608      	mov	r0, r1
  5132a0:	4b08      	ldr	r3, [pc, #32]	; (5132c4 <mesh_gatts_callback+0xa0>)
  5132a2:	4798      	blx	r3
  5132a4:	e7f7      	b.n	513296 <mesh_gatts_callback+0x72>
  5132a6:	bf00      	nop
  5132a8:	00514385 	.word	0x00514385
  5132ac:	00527908 	.word	0x00527908
  5132b0:	000d3259 	.word	0x000d3259
  5132b4:	002100c0 	.word	0x002100c0
  5132b8:	00210294 	.word	0x00210294
  5132bc:	005169ad 	.word	0x005169ad
  5132c0:	005153fd 	.word	0x005153fd
  5132c4:	005130a1 	.word	0x005130a1

005132c8 <mesh_app_gatt_is_connected>:
  5132c8:	4b02      	ldr	r3, [pc, #8]	; (5132d4 <mesh_app_gatt_is_connected+0xc>)
  5132ca:	8818      	ldrh	r0, [r3, #0]
  5132cc:	3000      	adds	r0, #0
  5132ce:	bf18      	it	ne
  5132d0:	2001      	movne	r0, #1
  5132d2:	4770      	bx	lr
  5132d4:	00210294 	.word	0x00210294

005132d8 <mesh_app_proxy_gatt_send_cb>:
  5132d8:	e92d 47f0 	stmdb	sp!, {r4, r5, r6, r7, r8, r9, sl, lr}
  5132dc:	4606      	mov	r6, r0
  5132de:	4617      	mov	r7, r2
  5132e0:	461d      	mov	r5, r3
  5132e2:	4689      	mov	r9, r1
  5132e4:	b1f1      	cbz	r1, 513324 <mesh_app_proxy_gatt_send_cb+0x4c>
  5132e6:	fa1f f883 	uxth.w	r8, r3
  5132ea:	f108 0007 	add.w	r0, r8, #7
  5132ee:	b280      	uxth	r0, r0
  5132f0:	4b17      	ldr	r3, [pc, #92]	; (513350 <mesh_app_proxy_gatt_send_cb+0x78>)
  5132f2:	4798      	blx	r3
  5132f4:	4604      	mov	r4, r0
  5132f6:	b340      	cbz	r0, 51334a <mesh_app_proxy_gatt_send_cb+0x72>
  5132f8:	2300      	movs	r3, #0
  5132fa:	f8a0 9000 	strh.w	r9, [r0]
  5132fe:	8043      	strh	r3, [r0, #2]
  513300:	f8a0 8004 	strh.w	r8, [r0, #4]
  513304:	7183      	strb	r3, [r0, #6]
  513306:	462a      	mov	r2, r5
  513308:	4639      	mov	r1, r7
  51330a:	4b12      	ldr	r3, [pc, #72]	; (513354 <mesh_app_proxy_gatt_send_cb+0x7c>)
  51330c:	3007      	adds	r0, #7
  51330e:	4798      	blx	r3
  513310:	4622      	mov	r2, r4
  513312:	b2b0      	uxth	r0, r6
  513314:	4b10      	ldr	r3, [pc, #64]	; (513358 <mesh_app_proxy_gatt_send_cb+0x80>)
  513316:	2101      	movs	r1, #1
  513318:	4798      	blx	r3
  51331a:	4620      	mov	r0, r4
  51331c:	4b0f      	ldr	r3, [pc, #60]	; (51335c <mesh_app_proxy_gatt_send_cb+0x84>)
  51331e:	e8bd 47f0 	ldmia.w	sp!, {r4, r5, r6, r7, r8, r9, sl, lr}
  513322:	4718      	bx	r3
  513324:	4b0e      	ldr	r3, [pc, #56]	; (513360 <mesh_app_proxy_gatt_send_cb+0x88>)
  513326:	7898      	ldrb	r0, [r3, #2]
  513328:	f010 0001 	ands.w	r0, r0, #1
  51332c:	d008      	beq.n	513340 <mesh_app_proxy_gatt_send_cb+0x68>
  51332e:	4c0d      	ldr	r4, [pc, #52]	; (513364 <mesh_app_proxy_gatt_send_cb+0x8c>)
  513330:	4613      	mov	r3, r2
  513332:	b2b0      	uxth	r0, r6
  513334:	b2aa      	uxth	r2, r5
  513336:	46a4      	mov	ip, r4
  513338:	2134      	movs	r1, #52	; 0x34
  51333a:	e8bd 47f0 	ldmia.w	sp!, {r4, r5, r6, r7, r8, r9, sl, lr}
  51333e:	4760      	bx	ip
  513340:	4a09      	ldr	r2, [pc, #36]	; (513368 <mesh_app_proxy_gatt_send_cb+0x90>)
  513342:	4b0a      	ldr	r3, [pc, #40]	; (51336c <mesh_app_proxy_gatt_send_cb+0x94>)
  513344:	e8bd 47f0 	ldmia.w	sp!, {r4, r5, r6, r7, r8, r9, sl, lr}
  513348:	4718      	bx	r3
  51334a:	e8bd 87f0 	ldmia.w	sp!, {r4, r5, r6, r7, r8, r9, sl, pc}
  51334e:	bf00      	nop
  513350:	00050d61 	.word	0x00050d61
  513354:	00006d31 	.word	0x00006d31
  513358:	000d29f1 	.word	0x000d29f1
  51335c:	00050d65 	.word	0x00050d65
  513360:	00210294 	.word	0x00210294
  513364:	000d2993 	.word	0x000d2993
  513368:	00527971 	.word	0x00527971
  51336c:	000d3259 	.word	0x000d3259

00513370 <mesh_application_proc_rx_cmd>:
  513370:	b5f8      	push	{r3, r4, r5, r6, r7, lr}
  513372:	4604      	mov	r4, r0
  513374:	b148      	cbz	r0, 51338a <mesh_application_proc_rx_cmd+0x1a>
  513376:	2903      	cmp	r1, #3
  513378:	d809      	bhi.n	51338e <mesh_application_proc_rx_cmd+0x1e>
  51337a:	2100      	movs	r1, #0
  51337c:	4a0d      	ldr	r2, [pc, #52]	; (5133b4 <mesh_application_proc_rx_cmd+0x44>)
  51337e:	4b0e      	ldr	r3, [pc, #56]	; (5133b8 <mesh_application_proc_rx_cmd+0x48>)
  513380:	4608      	mov	r0, r1
  513382:	4798      	blx	r3
  513384:	4620      	mov	r0, r4
  513386:	4b0d      	ldr	r3, [pc, #52]	; (5133bc <mesh_application_proc_rx_cmd+0x4c>)
  513388:	4798      	blx	r3
  51338a:	2000      	movs	r0, #0
  51338c:	bdf8      	pop	{r3, r4, r5, r6, r7, pc}
  51338e:	8847      	ldrh	r7, [r0, #2]
  513390:	8805      	ldrh	r5, [r0, #0]
  513392:	4b0b      	ldr	r3, [pc, #44]	; (5133c0 <mesh_application_proc_rx_cmd+0x50>)
  513394:	1d06      	adds	r6, r0, #4
  513396:	463a      	mov	r2, r7
  513398:	4631      	mov	r1, r6
  51339a:	4628      	mov	r0, r5
  51339c:	4798      	blx	r3
  51339e:	2800      	cmp	r0, #0
  5133a0:	d0f0      	beq.n	513384 <mesh_application_proc_rx_cmd+0x14>
  5133a2:	4b08      	ldr	r3, [pc, #32]	; (5133c4 <mesh_application_proc_rx_cmd+0x54>)
  5133a4:	695b      	ldr	r3, [r3, #20]
  5133a6:	2b00      	cmp	r3, #0
  5133a8:	d0ec      	beq.n	513384 <mesh_application_proc_rx_cmd+0x14>
  5133aa:	463a      	mov	r2, r7
  5133ac:	4631      	mov	r1, r6
  5133ae:	4628      	mov	r0, r5
  5133b0:	4798      	blx	r3
  5133b2:	e7e7      	b.n	513384 <mesh_application_proc_rx_cmd+0x14>
  5133b4:	00527998 	.word	0x00527998
  5133b8:	000d3259 	.word	0x000d3259
  5133bc:	0003a265 	.word	0x0003a265
  5133c0:	00517591 	.word	0x00517591
  5133c4:	002100c0 	.word	0x002100c0

005133c8 <mesh_hci_trace_cback>:
  5133c8:	b510      	push	{r4, lr}
  5133ca:	4601      	mov	r1, r0
  5133cc:	b958      	cbnz	r0, 5133e6 <mesh_hci_trace_cback+0x1e>
  5133ce:	7813      	ldrb	r3, [r2, #0]
  5133d0:	2b10      	cmp	r3, #16
  5133d2:	d108      	bne.n	5133e6 <mesh_hci_trace_cback+0x1e>
  5133d4:	7893      	ldrb	r3, [r2, #2]
  5133d6:	b133      	cbz	r3, 5133e6 <mesh_hci_trace_cback+0x1e>
  5133d8:	4c03      	ldr	r4, [pc, #12]	; (5133e8 <mesh_hci_trace_cback+0x20>)
  5133da:	4a04      	ldr	r2, [pc, #16]	; (5133ec <mesh_hci_trace_cback+0x24>)
  5133dc:	47a0      	blx	r4
  5133de:	4b04      	ldr	r3, [pc, #16]	; (5133f0 <mesh_hci_trace_cback+0x28>)
  5133e0:	e8bd 4010 	ldmia.w	sp!, {r4, lr}
  5133e4:	4718      	bx	r3
  5133e6:	bd10      	pop	{r4, pc}
  5133e8:	000d3259 	.word	0x000d3259
  5133ec:	005279a8 	.word	0x005279a8
  5133f0:	000d38ff 	.word	0x000d38ff

005133f4 <mesh_app_hci_init>:
  5133f4:	b510      	push	{r4, lr}
  5133f6:	4b17      	ldr	r3, [pc, #92]	; (513454 <mesh_app_hci_init+0x60>)
  5133f8:	4817      	ldr	r0, [pc, #92]	; (513458 <mesh_app_hci_init+0x64>)
  5133fa:	4c18      	ldr	r4, [pc, #96]	; (51345c <mesh_app_hci_init+0x68>)
  5133fc:	4798      	blx	r3
  5133fe:	2102      	movs	r1, #2
  513400:	4b17      	ldr	r3, [pc, #92]	; (513460 <mesh_app_hci_init+0x6c>)
  513402:	f44f 6080 	mov.w	r0, #1024	; 0x400
  513406:	4798      	blx	r3
  513408:	4b16      	ldr	r3, [pc, #88]	; (513464 <mesh_app_hci_init+0x70>)
  51340a:	6018      	str	r0, [r3, #0]
  51340c:	2004      	movs	r0, #4
  51340e:	4b16      	ldr	r3, [pc, #88]	; (513468 <mesh_app_hci_init+0x74>)
  513410:	4798      	blx	r3
  513412:	f44f 2061 	mov.w	r0, #921600	; 0xe1000
  513416:	4b15      	ldr	r3, [pc, #84]	; (51346c <mesh_app_hci_init+0x78>)
  513418:	4798      	blx	r3
  51341a:	2238      	movs	r2, #56	; 0x38
  51341c:	2100      	movs	r1, #0
  51341e:	4b14      	ldr	r3, [pc, #80]	; (513470 <mesh_app_hci_init+0x7c>)
  513420:	4814      	ldr	r0, [pc, #80]	; (513474 <mesh_app_hci_init+0x80>)
  513422:	4798      	blx	r3
  513424:	2303      	movs	r3, #3
  513426:	2200      	movs	r2, #0
  513428:	4913      	ldr	r1, [pc, #76]	; (513478 <mesh_app_hci_init+0x84>)
  51342a:	4812      	ldr	r0, [pc, #72]	; (513474 <mesh_app_hci_init+0x80>)
  51342c:	47a0      	blx	r4
  51342e:	b970      	cbnz	r0, 51344e <mesh_app_hci_init+0x5a>
  513430:	2101      	movs	r1, #1
  513432:	4810      	ldr	r0, [pc, #64]	; (513474 <mesh_app_hci_init+0x80>)
  513434:	4b11      	ldr	r3, [pc, #68]	; (51347c <mesh_app_hci_init+0x88>)
  513436:	4798      	blx	r3
  513438:	b120      	cbz	r0, 513444 <mesh_app_hci_init+0x50>
  51343a:	4a11      	ldr	r2, [pc, #68]	; (513480 <mesh_app_hci_init+0x8c>)
  51343c:	4b11      	ldr	r3, [pc, #68]	; (513484 <mesh_app_hci_init+0x90>)
  51343e:	2100      	movs	r1, #0
  513440:	4608      	mov	r0, r1
  513442:	4798      	blx	r3
  513444:	4810      	ldr	r0, [pc, #64]	; (513488 <mesh_app_hci_init+0x94>)
  513446:	4b11      	ldr	r3, [pc, #68]	; (51348c <mesh_app_hci_init+0x98>)
  513448:	e8bd 4010 	ldmia.w	sp!, {r4, lr}
  51344c:	4718      	bx	r3
  51344e:	4a10      	ldr	r2, [pc, #64]	; (513490 <mesh_app_hci_init+0x9c>)
  513450:	e7f4      	b.n	51343c <mesh_app_hci_init+0x48>
  513452:	bf00      	nop
  513454:	0003a0f9 	.word	0x0003a0f9
  513458:	00527260 	.word	0x00527260
  51345c:	00006451 	.word	0x00006451
  513460:	0003a15b 	.word	0x0003a15b
  513464:	002102ac 	.word	0x002102ac
  513468:	000d2dc5 	.word	0x000d2dc5
  51346c:	000d39e3 	.word	0x000d39e3
  513470:	00006d41 	.word	0x00006d41
  513474:	00210698 	.word	0x00210698
  513478:	00513519 	.word	0x00513519
  51347c:	0000647b 	.word	0x0000647b
  513480:	005279d4 	.word	0x005279d4
  513484:	000d3259 	.word	0x000d3259
  513488:	005133c9 	.word	0x005133c9
  51348c:	00082d6b 	.word	0x00082d6b
  513490:	005279ee 	.word	0x005279ee

00513494 <_deb_print_buf_use>:
  513494:	b510      	push	{r4, lr}
  513496:	b09a      	sub	sp, #104	; 0x68
  513498:	2124      	movs	r1, #36	; 0x24
  51349a:	a811      	add	r0, sp, #68	; 0x44
  51349c:	4b1b      	ldr	r3, [pc, #108]	; (51350c <_deb_print_buf_use+0x78>)
  51349e:	4c1c      	ldr	r4, [pc, #112]	; (513510 <_deb_print_buf_use+0x7c>)
  5134a0:	4798      	blx	r3
  5134a2:	f8bd 2066 	ldrh.w	r2, [sp, #102]	; 0x66
  5134a6:	920e      	str	r2, [sp, #56]	; 0x38
  5134a8:	f8bd 2064 	ldrh.w	r2, [sp, #100]	; 0x64
  5134ac:	920d      	str	r2, [sp, #52]	; 0x34
  5134ae:	f8bd 2062 	ldrh.w	r2, [sp, #98]	; 0x62
  5134b2:	920c      	str	r2, [sp, #48]	; 0x30
  5134b4:	f8bd 2060 	ldrh.w	r2, [sp, #96]	; 0x60
  5134b8:	920b      	str	r2, [sp, #44]	; 0x2c
  5134ba:	f8bd 205d 	ldrh.w	r2, [sp, #93]	; 0x5d
  5134be:	920a      	str	r2, [sp, #40]	; 0x28
  5134c0:	f8bd 205b 	ldrh.w	r2, [sp, #91]	; 0x5b
  5134c4:	9209      	str	r2, [sp, #36]	; 0x24
  5134c6:	f8bd 2059 	ldrh.w	r2, [sp, #89]	; 0x59
  5134ca:	9208      	str	r2, [sp, #32]
  5134cc:	f8bd 2057 	ldrh.w	r2, [sp, #87]	; 0x57
  5134d0:	9207      	str	r2, [sp, #28]
  5134d2:	f8bd 2054 	ldrh.w	r2, [sp, #84]	; 0x54
  5134d6:	9206      	str	r2, [sp, #24]
  5134d8:	f8bd 2052 	ldrh.w	r2, [sp, #82]	; 0x52
  5134dc:	9205      	str	r2, [sp, #20]
  5134de:	f8bd 2050 	ldrh.w	r2, [sp, #80]	; 0x50
  5134e2:	9204      	str	r2, [sp, #16]
  5134e4:	f8bd 204e 	ldrh.w	r2, [sp, #78]	; 0x4e
  5134e8:	9203      	str	r2, [sp, #12]
  5134ea:	f8bd 204b 	ldrh.w	r2, [sp, #75]	; 0x4b
  5134ee:	9202      	str	r2, [sp, #8]
  5134f0:	f8bd 2049 	ldrh.w	r2, [sp, #73]	; 0x49
  5134f4:	9201      	str	r2, [sp, #4]
  5134f6:	2100      	movs	r1, #0
  5134f8:	f8bd 2047 	ldrh.w	r2, [sp, #71]	; 0x47
  5134fc:	9200      	str	r2, [sp, #0]
  5134fe:	f8bd 3045 	ldrh.w	r3, [sp, #69]	; 0x45
  513502:	4a04      	ldr	r2, [pc, #16]	; (513514 <_deb_print_buf_use+0x80>)
  513504:	4608      	mov	r0, r1
  513506:	47a0      	blx	r4
  513508:	b01a      	add	sp, #104	; 0x68
  51350a:	bd10      	pop	{r4, pc}
  51350c:	00050d75 	.word	0x00050d75
  513510:	000d3259 	.word	0x000d3259
  513514:	00527a18 	.word	0x00527a18

00513518 <mesh_app_timer>:
  513518:	4a06      	ldr	r2, [pc, #24]	; (513534 <mesh_app_timer+0x1c>)
  51351a:	6813      	ldr	r3, [r2, #0]
  51351c:	211e      	movs	r1, #30
  51351e:	3301      	adds	r3, #1
  513520:	6013      	str	r3, [r2, #0]
  513522:	fbb3 f2f1 	udiv	r2, r3, r1
  513526:	fb01 3312 	mls	r3, r1, r2, r3
  51352a:	b90b      	cbnz	r3, 513530 <mesh_app_timer+0x18>
  51352c:	4b02      	ldr	r3, [pc, #8]	; (513538 <mesh_app_timer+0x20>)
  51352e:	4718      	bx	r3
  513530:	4770      	bx	lr
  513532:	bf00      	nop
  513534:	0020ff70 	.word	0x0020ff70
  513538:	00513495 	.word	0x00513495

0051353c <mesh_app_hci_send_seq_changed>:
  51353c:	4b0c      	ldr	r3, [pc, #48]	; (513570 <mesh_app_hci_send_seq_changed+0x34>)
  51353e:	b510      	push	{r4, lr}
  513540:	4604      	mov	r4, r0
  513542:	6818      	ldr	r0, [r3, #0]
  513544:	4b0b      	ldr	r3, [pc, #44]	; (513574 <mesh_app_hci_send_seq_changed+0x38>)
  513546:	4798      	blx	r3
  513548:	4601      	mov	r1, r0
  51354a:	b180      	cbz	r0, 51356e <mesh_app_hci_send_seq_changed+0x32>
  51354c:	8823      	ldrh	r3, [r4, #0]
  51354e:	8003      	strh	r3, [r0, #0]
  513550:	6863      	ldr	r3, [r4, #4]
  513552:	f8c0 3002 	str.w	r3, [r0, #2]
  513556:	7a23      	ldrb	r3, [r4, #8]
  513558:	7183      	strb	r3, [r0, #6]
  51355a:	8963      	ldrh	r3, [r4, #10]
  51355c:	f8a0 3007 	strh.w	r3, [r0, #7]
  513560:	2209      	movs	r2, #9
  513562:	f241 60fc 	movw	r0, #5884	; 0x16fc
  513566:	4b04      	ldr	r3, [pc, #16]	; (513578 <mesh_app_hci_send_seq_changed+0x3c>)
  513568:	e8bd 4010 	ldmia.w	sp!, {r4, lr}
  51356c:	4718      	bx	r3
  51356e:	bd10      	pop	{r4, pc}
  513570:	002102ac 	.word	0x002102ac
  513574:	0003a1a3 	.word	0x0003a1a3
  513578:	0003a1eb 	.word	0x0003a1eb

0051357c <mesh_app_hci_sleep>:
  51357c:	b510      	push	{r4, lr}
  51357e:	4805      	ldr	r0, [pc, #20]	; (513594 <mesh_app_hci_sleep+0x18>)
  513580:	4b05      	ldr	r3, [pc, #20]	; (513598 <mesh_app_hci_sleep+0x1c>)
  513582:	4798      	blx	r3
  513584:	b120      	cbz	r0, 513590 <mesh_app_hci_sleep+0x14>
  513586:	4803      	ldr	r0, [pc, #12]	; (513594 <mesh_app_hci_sleep+0x18>)
  513588:	4b04      	ldr	r3, [pc, #16]	; (51359c <mesh_app_hci_sleep+0x20>)
  51358a:	e8bd 4010 	ldmia.w	sp!, {r4, lr}
  51358e:	4718      	bx	r3
  513590:	bd10      	pop	{r4, pc}
  513592:	bf00      	nop
  513594:	00210698 	.word	0x00210698
  513598:	000064bf 	.word	0x000064bf
  51359c:	000064ad 	.word	0x000064ad

005135a0 <mesh_app_provision_get_oob>:
  5135a0:	b513      	push	{r0, r1, r4, lr}
  5135a2:	4808      	ldr	r0, [pc, #32]	; (5135c4 <mesh_app_provision_get_oob+0x24>)
  5135a4:	6844      	ldr	r4, [r0, #4]
  5135a6:	b15c      	cbz	r4, 5135c0 <mesh_app_provision_get_oob+0x20>
  5135a8:	f88d 1002 	strb.w	r1, [sp, #2]
  5135ac:	20ce      	movs	r0, #206	; 0xce
  5135ae:	f88d 2003 	strb.w	r2, [sp, #3]
  5135b2:	f8ad 3004 	strh.w	r3, [sp, #4]
  5135b6:	4669      	mov	r1, sp
  5135b8:	47a0      	blx	r4
  5135ba:	2001      	movs	r0, #1
  5135bc:	b002      	add	sp, #8
  5135be:	bd10      	pop	{r4, pc}
  5135c0:	4620      	mov	r0, r4
  5135c2:	e7fb      	b.n	5135bc <mesh_app_provision_get_oob+0x1c>
  5135c4:	002102b4 	.word	0x002102b4

005135c8 <mesh_app_provision_gatt_send_cb>:
  5135c8:	b570      	push	{r4, r5, r6, lr}
  5135ca:	460b      	mov	r3, r1
  5135cc:	4604      	mov	r4, r0
  5135ce:	b292      	uxth	r2, r2
  5135d0:	212c      	movs	r1, #44	; 0x2c
  5135d2:	4d05      	ldr	r5, [pc, #20]	; (5135e8 <mesh_app_provision_gatt_send_cb+0x20>)
  5135d4:	47a8      	blx	r5
  5135d6:	4623      	mov	r3, r4
  5135d8:	4c04      	ldr	r4, [pc, #16]	; (5135ec <mesh_app_provision_gatt_send_cb+0x24>)
  5135da:	4a05      	ldr	r2, [pc, #20]	; (5135f0 <mesh_app_provision_gatt_send_cb+0x28>)
  5135dc:	2100      	movs	r1, #0
  5135de:	46a4      	mov	ip, r4
  5135e0:	4608      	mov	r0, r1
  5135e2:	e8bd 4070 	ldmia.w	sp!, {r4, r5, r6, lr}
  5135e6:	4760      	bx	ip
  5135e8:	000d2993 	.word	0x000d2993
  5135ec:	000d3259 	.word	0x000d3259
  5135f0:	00527bef 	.word	0x00527bef

005135f4 <mesh_app_provision_started>:
  5135f4:	2100      	movs	r1, #0
  5135f6:	4603      	mov	r3, r0
  5135f8:	b510      	push	{r4, lr}
  5135fa:	4a06      	ldr	r2, [pc, #24]	; (513614 <mesh_app_provision_started+0x20>)
  5135fc:	4c06      	ldr	r4, [pc, #24]	; (513618 <mesh_app_provision_started+0x24>)
  5135fe:	4608      	mov	r0, r1
  513600:	47a0      	blx	r4
  513602:	4b06      	ldr	r3, [pc, #24]	; (51361c <mesh_app_provision_started+0x28>)
  513604:	685b      	ldr	r3, [r3, #4]
  513606:	b123      	cbz	r3, 513612 <mesh_app_provision_started+0x1e>
  513608:	2100      	movs	r1, #0
  51360a:	20cb      	movs	r0, #203	; 0xcb
  51360c:	e8bd 4010 	ldmia.w	sp!, {r4, lr}
  513610:	4718      	bx	r3
  513612:	bd10      	pop	{r4, pc}
  513614:	00527c1c 	.word	0x00527c1c
  513618:	000d3259 	.word	0x000d3259
  51361c:	002102b4 	.word	0x002102b4

00513620 <mesh_app_provision_get_capabilities>:
  513620:	b57f      	push	{r0, r1, r2, r3, r4, r5, r6, lr}
  513622:	4605      	mov	r5, r0
  513624:	220b      	movs	r2, #11
  513626:	2100      	movs	r1, #0
  513628:	a801      	add	r0, sp, #4
  51362a:	4b19      	ldr	r3, [pc, #100]	; (513690 <mesh_app_provision_get_capabilities+0x70>)
  51362c:	4e19      	ldr	r6, [pc, #100]	; (513694 <mesh_app_provision_get_capabilities+0x74>)
  51362e:	4798      	blx	r3
  513630:	4b19      	ldr	r3, [pc, #100]	; (513698 <mesh_app_provision_get_capabilities+0x78>)
  513632:	f893 302e 	ldrb.w	r3, [r3, #46]	; 0x2e
  513636:	f88d 3004 	strb.w	r3, [sp, #4]
  51363a:	4b18      	ldr	r3, [pc, #96]	; (51369c <mesh_app_provision_get_capabilities+0x7c>)
  51363c:	7a1a      	ldrb	r2, [r3, #8]
  51363e:	f88d 2007 	strb.w	r2, [sp, #7]
  513642:	7a5a      	ldrb	r2, [r3, #9]
  513644:	f88d 2008 	strb.w	r2, [sp, #8]
  513648:	8b9a      	ldrh	r2, [r3, #28]
  51364a:	f88d 200b 	strb.w	r2, [sp, #11]
  51364e:	0a10      	lsrs	r0, r2, #8
  513650:	7e9a      	ldrb	r2, [r3, #26]
  513652:	f88d 2009 	strb.w	r2, [sp, #9]
  513656:	8c1a      	ldrh	r2, [r3, #32]
  513658:	f88d 000a 	strb.w	r0, [sp, #10]
  51365c:	2100      	movs	r1, #0
  51365e:	0a10      	lsrs	r0, r2, #8
  513660:	7f9b      	ldrb	r3, [r3, #30]
  513662:	f88d 000d 	strb.w	r0, [sp, #13]
  513666:	2401      	movs	r4, #1
  513668:	f88d 200e 	strb.w	r2, [sp, #14]
  51366c:	f88d 300c 	strb.w	r3, [sp, #12]
  513670:	4a0b      	ldr	r2, [pc, #44]	; (5136a0 <mesh_app_provision_get_capabilities+0x80>)
  513672:	f88d 1005 	strb.w	r1, [sp, #5]
  513676:	462b      	mov	r3, r5
  513678:	4608      	mov	r0, r1
  51367a:	f88d 4006 	strb.w	r4, [sp, #6]
  51367e:	47b0      	blx	r6
  513680:	a901      	add	r1, sp, #4
  513682:	4628      	mov	r0, r5
  513684:	4b07      	ldr	r3, [pc, #28]	; (5136a4 <mesh_app_provision_get_capabilities+0x84>)
  513686:	4798      	blx	r3
  513688:	4620      	mov	r0, r4
  51368a:	b004      	add	sp, #16
  51368c:	bd70      	pop	{r4, r5, r6, pc}
  51368e:	bf00      	nop
  513690:	00006d41 	.word	0x00006d41
  513694:	000d3259 	.word	0x000d3259
  513698:	00210078 	.word	0x00210078
  51369c:	002102b4 	.word	0x002102b4
  5136a0:	00527c44 	.word	0x00527c44
  5136a4:	00519469 	.word	0x00519469

005136a8 <mesh_app_provision_end>:
  5136a8:	e92d 41f0 	stmdb	sp!, {r4, r5, r6, r7, r8, lr}
  5136ac:	b088      	sub	sp, #32
  5136ae:	4688      	mov	r8, r1
  5136b0:	2100      	movs	r1, #0
  5136b2:	4c14      	ldr	r4, [pc, #80]	; (513704 <mesh_app_provision_end+0x5c>)
  5136b4:	9300      	str	r3, [sp, #0]
  5136b6:	4617      	mov	r7, r2
  5136b8:	461e      	mov	r6, r3
  5136ba:	4a13      	ldr	r2, [pc, #76]	; (513708 <mesh_app_provision_end+0x60>)
  5136bc:	9d0e      	ldr	r5, [sp, #56]	; 0x38
  5136be:	4603      	mov	r3, r0
  5136c0:	4608      	mov	r0, r1
  5136c2:	47a0      	blx	r4
  5136c4:	2100      	movs	r1, #0
  5136c6:	4a11      	ldr	r2, [pc, #68]	; (51370c <mesh_app_provision_end+0x64>)
  5136c8:	4608      	mov	r0, r1
  5136ca:	47a0      	blx	r4
  5136cc:	4c10      	ldr	r4, [pc, #64]	; (513710 <mesh_app_provision_end+0x68>)
  5136ce:	4b11      	ldr	r3, [pc, #68]	; (513714 <mesh_app_provision_end+0x6c>)
  5136d0:	2110      	movs	r1, #16
  5136d2:	4628      	mov	r0, r5
  5136d4:	4798      	blx	r3
  5136d6:	6862      	ldr	r2, [r4, #4]
  5136d8:	b182      	cbz	r2, 5136fc <mesh_app_provision_end+0x54>
  5136da:	f8ad 800a 	strh.w	r8, [sp, #10]
  5136de:	f8ad 700c 	strh.w	r7, [sp, #12]
  5136e2:	f88d 600e 	strb.w	r6, [sp, #14]
  5136e6:	b12d      	cbz	r5, 5136f4 <mesh_app_provision_end+0x4c>
  5136e8:	2210      	movs	r2, #16
  5136ea:	4629      	mov	r1, r5
  5136ec:	f10d 000f 	add.w	r0, sp, #15
  5136f0:	4b09      	ldr	r3, [pc, #36]	; (513718 <mesh_app_provision_end+0x70>)
  5136f2:	4798      	blx	r3
  5136f4:	6863      	ldr	r3, [r4, #4]
  5136f6:	a902      	add	r1, sp, #8
  5136f8:	20cc      	movs	r0, #204	; 0xcc
  5136fa:	4798      	blx	r3
  5136fc:	b008      	add	sp, #32
  5136fe:	e8bd 81f0 	ldmia.w	sp!, {r4, r5, r6, r7, r8, pc}
  513702:	bf00      	nop
  513704:	000d3259 	.word	0x000d3259
  513708:	00527c75 	.word	0x00527c75
  51370c:	0052884f 	.word	0x0052884f
  513710:	002102b4 	.word	0x002102b4
  513714:	000d2e27 	.word	0x000d2e27
  513718:	00006d31 	.word	0x00006d31

0051371c <wiced_bt_mesh_app_provision_server_init>:
  51371c:	b513      	push	{r0, r1, r4, lr}
  51371e:	4b06      	ldr	r3, [pc, #24]	; (513738 <wiced_bt_mesh_app_provision_server_init+0x1c>)
  513720:	4a06      	ldr	r2, [pc, #24]	; (51373c <wiced_bt_mesh_app_provision_server_init+0x20>)
  513722:	6059      	str	r1, [r3, #4]
  513724:	4b06      	ldr	r3, [pc, #24]	; (513740 <wiced_bt_mesh_app_provision_server_init+0x24>)
  513726:	9301      	str	r3, [sp, #4]
  513728:	4b06      	ldr	r3, [pc, #24]	; (513744 <wiced_bt_mesh_app_provision_server_init+0x28>)
  51372a:	9300      	str	r3, [sp, #0]
  51372c:	4906      	ldr	r1, [pc, #24]	; (513748 <wiced_bt_mesh_app_provision_server_init+0x2c>)
  51372e:	4b07      	ldr	r3, [pc, #28]	; (51374c <wiced_bt_mesh_app_provision_server_init+0x30>)
  513730:	4c07      	ldr	r4, [pc, #28]	; (513750 <wiced_bt_mesh_app_provision_server_init+0x34>)
  513732:	47a0      	blx	r4
  513734:	b002      	add	sp, #8
  513736:	bd10      	pop	{r4, pc}
  513738:	002102b4 	.word	0x002102b4
  51373c:	005136a9 	.word	0x005136a9
  513740:	005135c9 	.word	0x005135c9
  513744:	005135a1 	.word	0x005135a1
  513748:	005135f5 	.word	0x005135f5
  51374c:	00513621 	.word	0x00513621
  513750:	00518abd 	.word	0x00518abd

00513754 <number_of_elements_with_model>:
  513754:	b5f0      	push	{r4, r5, r6, r7, lr}
  513756:	4a12      	ldr	r2, [pc, #72]	; (5137a0 <number_of_elements_with_model+0x4c>)
  513758:	f8d2 302f 	ldr.w	r3, [r2, #47]	; 0x2f
  51375c:	f892 202e 	ldrb.w	r2, [r2, #46]	; 0x2e
  513760:	251d      	movs	r5, #29
  513762:	fb15 3502 	smlabb	r5, r5, r2, r3
  513766:	f64f 77ff 	movw	r7, #65535	; 0xffff
  51376a:	2200      	movs	r2, #0
  51376c:	42ab      	cmp	r3, r5
  51376e:	d015      	beq.n	51379c <number_of_elements_with_model+0x48>
  513770:	7e1e      	ldrb	r6, [r3, #24]
  513772:	2100      	movs	r1, #0
  513774:	e000      	b.n	513778 <number_of_elements_with_model+0x24>
  513776:	3101      	adds	r1, #1
  513778:	b2cc      	uxtb	r4, r1
  51377a:	42a6      	cmp	r6, r4
  51377c:	d90c      	bls.n	513798 <number_of_elements_with_model+0x44>
  51377e:	f8d3 4019 	ldr.w	r4, [r3, #25]
  513782:	eb04 1401 	add.w	r4, r4, r1, lsl #4
  513786:	f8b4 c000 	ldrh.w	ip, [r4]
  51378a:	45bc      	cmp	ip, r7
  51378c:	d1f3      	bne.n	513776 <number_of_elements_with_model+0x22>
  51378e:	8864      	ldrh	r4, [r4, #2]
  513790:	4284      	cmp	r4, r0
  513792:	d1f0      	bne.n	513776 <number_of_elements_with_model+0x22>
  513794:	3201      	adds	r2, #1
  513796:	b2d2      	uxtb	r2, r2
  513798:	331d      	adds	r3, #29
  51379a:	e7e7      	b.n	51376c <number_of_elements_with_model+0x18>
  51379c:	4610      	mov	r0, r2
  51379e:	bdf0      	pop	{r4, r5, r6, r7, pc}
  5137a0:	00210078 	.word	0x00210078

005137a4 <mesh_ota_firmware_upgrade_status_callback>:
  5137a4:	b410      	push	{r4}
  5137a6:	4c04      	ldr	r4, [pc, #16]	; (5137b8 <mesh_ota_firmware_upgrade_status_callback+0x14>)
  5137a8:	4a04      	ldr	r2, [pc, #16]	; (5137bc <mesh_ota_firmware_upgrade_status_callback+0x18>)
  5137aa:	2100      	movs	r1, #0
  5137ac:	4603      	mov	r3, r0
  5137ae:	46a4      	mov	ip, r4
  5137b0:	4608      	mov	r0, r1
  5137b2:	bc10      	pop	{r4}
  5137b4:	4760      	bx	ip
  5137b6:	bf00      	nop
  5137b8:	000d3259 	.word	0x000d3259
  5137bc:	00527cac 	.word	0x00527cac

005137c0 <get_msg_handler_callback>:
  5137c0:	e92d 4ff0 	stmdb	sp!, {r4, r5, r6, r7, r8, r9, sl, fp, lr}
  5137c4:	b0a1      	sub	sp, #132	; 0x84
  5137c6:	460d      	mov	r5, r1
  5137c8:	9100      	str	r1, [sp, #0]
  5137ca:	2100      	movs	r1, #0
  5137cc:	e9cd 2302 	strd	r2, r3, [sp, #8]
  5137d0:	4606      	mov	r6, r0
  5137d2:	4603      	mov	r3, r0
  5137d4:	4a4a      	ldr	r2, [pc, #296]	; (513900 <get_msg_handler_callback+0x140>)
  5137d6:	4c4b      	ldr	r4, [pc, #300]	; (513904 <get_msg_handler_callback+0x144>)
  5137d8:	4608      	mov	r0, r1
  5137da:	47a0      	blx	r4
  5137dc:	f64f 73fe 	movw	r3, #65534	; 0xfffe
  5137e0:	429e      	cmp	r6, r3
  5137e2:	d104      	bne.n	5137ee <get_msg_handler_callback+0x2e>
  5137e4:	4b48      	ldr	r3, [pc, #288]	; (513908 <get_msg_handler_callback+0x148>)
  5137e6:	681c      	ldr	r4, [r3, #0]
  5137e8:	2c00      	cmp	r4, #0
  5137ea:	f040 8083 	bne.w	5138f4 <get_msg_handler_callback+0x134>
  5137ee:	f8ad 5028 	strh.w	r5, [sp, #40]	; 0x28
  5137f2:	2700      	movs	r7, #0
  5137f4:	f64f 75ff 	movw	r5, #65535	; 0xffff
  5137f8:	f8df 8110 	ldr.w	r8, [pc, #272]	; 51390c <get_msg_handler_callback+0x14c>
  5137fc:	f8ad 6024 	strh.w	r6, [sp, #36]	; 0x24
  513800:	f8ad 5026 	strh.w	r5, [sp, #38]	; 0x26
  513804:	463c      	mov	r4, r7
  513806:	f898 302e 	ldrb.w	r3, [r8, #46]	; 0x2e
  51380a:	fa5f f987 	uxtb.w	r9, r7
  51380e:	454b      	cmp	r3, r9
  513810:	d949      	bls.n	5138a6 <get_msg_handler_callback+0xe6>
  513812:	231d      	movs	r3, #29
  513814:	fb03 fb09 	mul.w	fp, r3, r9
  513818:	f04f 0a00 	mov.w	sl, #0
  51381c:	e00d      	b.n	51383a <get_msg_handler_callback+0x7a>
  51381e:	0119      	lsls	r1, r3, #4
  513820:	9104      	str	r1, [sp, #16]
  513822:	f8d2 2019 	ldr.w	r2, [r2, #25]
  513826:	f64f 70ff 	movw	r0, #65535	; 0xffff
  51382a:	440a      	add	r2, r1
  51382c:	4286      	cmp	r6, r0
  51382e:	8811      	ldrh	r1, [r2, #0]
  513830:	d00d      	beq.n	51384e <get_msg_handler_callback+0x8e>
  513832:	4281      	cmp	r1, r0
  513834:	d10d      	bne.n	513852 <get_msg_handler_callback+0x92>
  513836:	f10a 0a01 	add.w	sl, sl, #1
  51383a:	4a34      	ldr	r2, [pc, #208]	; (51390c <get_msg_handler_callback+0x14c>)
  51383c:	f8d2 202f 	ldr.w	r2, [r2, #47]	; 0x2f
  513840:	445a      	add	r2, fp
  513842:	fa5f f38a 	uxtb.w	r3, sl
  513846:	7e11      	ldrb	r1, [r2, #24]
  513848:	4299      	cmp	r1, r3
  51384a:	d8e8      	bhi.n	51381e <get_msg_handler_callback+0x5e>
  51384c:	e023      	b.n	513896 <get_msg_handler_callback+0xd6>
  51384e:	42b1      	cmp	r1, r6
  513850:	d1f1      	bne.n	513836 <get_msg_handler_callback+0x76>
  513852:	9305      	str	r3, [sp, #20]
  513854:	6854      	ldr	r4, [r2, #4]
  513856:	2c00      	cmp	r4, #0
  513858:	d0ed      	beq.n	513836 <get_msg_handler_callback+0x76>
  51385a:	2200      	movs	r2, #0
  51385c:	4611      	mov	r1, r2
  51385e:	a807      	add	r0, sp, #28
  513860:	47a0      	blx	r4
  513862:	2800      	cmp	r0, #0
  513864:	d0e7      	beq.n	513836 <get_msg_handler_callback+0x76>
  513866:	f8d8 202f 	ldr.w	r2, [r8, #47]	; 0x2f
  51386a:	9b04      	ldr	r3, [sp, #16]
  51386c:	9902      	ldr	r1, [sp, #8]
  51386e:	445a      	add	r2, fp
  513870:	f8d2 2019 	ldr.w	r2, [r2, #25]
  513874:	441a      	add	r2, r3
  513876:	9b05      	ldr	r3, [sp, #20]
  513878:	8852      	ldrh	r2, [r2, #2]
  51387a:	b295      	uxth	r5, r2
  51387c:	b101      	cbz	r1, 513880 <get_msg_handler_callback+0xc0>
  51387e:	800a      	strh	r2, [r1, #0]
  513880:	f8bd 1026 	ldrh.w	r1, [sp, #38]	; 0x26
  513884:	f64f 72ff 	movw	r2, #65535	; 0xffff
  513888:	4291      	cmp	r1, r2
  51388a:	d004      	beq.n	513896 <get_msg_handler_callback+0xd6>
  51388c:	9a03      	ldr	r2, [sp, #12]
  51388e:	b112      	cbz	r2, 513896 <get_msg_handler_callback+0xd6>
  513890:	9903      	ldr	r1, [sp, #12]
  513892:	2201      	movs	r2, #1
  513894:	600a      	str	r2, [r1, #0]
  513896:	f8d8 202f 	ldr.w	r2, [r8, #47]	; 0x2f
  51389a:	4493      	add	fp, r2
  51389c:	3701      	adds	r7, #1
  51389e:	f89b 2018 	ldrb.w	r2, [fp, #24]
  5138a2:	429a      	cmp	r2, r3
  5138a4:	d9af      	bls.n	513806 <get_msg_handler_callback+0x46>
  5138a6:	4b19      	ldr	r3, [pc, #100]	; (51390c <get_msg_handler_callback+0x14c>)
  5138a8:	f893 302e 	ldrb.w	r3, [r3, #46]	; 0x2e
  5138ac:	454b      	cmp	r3, r9
  5138ae:	bf98      	it	ls
  5138b0:	2400      	movls	r4, #0
  5138b2:	4b15      	ldr	r3, [pc, #84]	; (513908 <get_msg_handler_callback+0x148>)
  5138b4:	685a      	ldr	r2, [r3, #4]
  5138b6:	b19a      	cbz	r2, 5138e0 <get_msg_handler_callback+0x120>
  5138b8:	2d11      	cmp	r5, #17
  5138ba:	d803      	bhi.n	5138c4 <get_msg_handler_callback+0x104>
  5138bc:	4b14      	ldr	r3, [pc, #80]	; (513910 <get_msg_handler_callback+0x150>)
  5138be:	40eb      	lsrs	r3, r5
  5138c0:	07db      	lsls	r3, r3, #31
  5138c2:	d40d      	bmi.n	5138e0 <get_msg_handler_callback+0x120>
  5138c4:	f505 7300 	add.w	r3, r5, #512	; 0x200
  5138c8:	b29b      	uxth	r3, r3
  5138ca:	2b03      	cmp	r3, #3
  5138cc:	d908      	bls.n	5138e0 <get_msg_handler_callback+0x120>
  5138ce:	f505 7380 	add.w	r3, r5, #256	; 0x100
  5138d2:	b29b      	uxth	r3, r3
  5138d4:	2b01      	cmp	r3, #1
  5138d6:	d903      	bls.n	5138e0 <get_msg_handler_callback+0x120>
  5138d8:	f241 0305 	movw	r3, #4101	; 0x1005
  5138dc:	429d      	cmp	r5, r3
  5138de:	d10c      	bne.n	5138fa <get_msg_handler_callback+0x13a>
  5138e0:	b924      	cbnz	r4, 5138ec <get_msg_handler_callback+0x12c>
  5138e2:	4a0c      	ldr	r2, [pc, #48]	; (513914 <get_msg_handler_callback+0x154>)
  5138e4:	4b07      	ldr	r3, [pc, #28]	; (513904 <get_msg_handler_callback+0x144>)
  5138e6:	4621      	mov	r1, r4
  5138e8:	4620      	mov	r0, r4
  5138ea:	4798      	blx	r3
  5138ec:	4620      	mov	r0, r4
  5138ee:	b021      	add	sp, #132	; 0x84
  5138f0:	e8bd 8ff0 	ldmia.w	sp!, {r4, r5, r6, r7, r8, r9, sl, fp, pc}
  5138f4:	f64f 75ff 	movw	r5, #65535	; 0xffff
  5138f8:	e7db      	b.n	5138b2 <get_msg_handler_callback+0xf2>
  5138fa:	4614      	mov	r4, r2
  5138fc:	e7f6      	b.n	5138ec <get_msg_handler_callback+0x12c>
  5138fe:	bf00      	nop
  513900:	00527ce2 	.word	0x00527ce2
  513904:	000d3259 	.word	0x000d3259
  513908:	002102d8 	.word	0x002102d8
  51390c:	00210078 	.word	0x00210078
  513910:	00030032 	.word	0x00030032
  513914:	00527d7c 	.word	0x00527d7c

00513918 <mesh_start_stop_scan_callback>:
  513918:	e92d 41f0 	stmdb	sp!, {r4, r5, r6, r7, r8, lr}
  51391c:	4c23      	ldr	r4, [pc, #140]	; (5139ac <mesh_start_stop_scan_callback+0x94>)
  51391e:	4b24      	ldr	r3, [pc, #144]	; (5139b0 <mesh_start_stop_scan_callback+0x98>)
  513920:	4605      	mov	r5, r0
  513922:	460e      	mov	r6, r1
  513924:	4798      	blx	r3
  513926:	68a3      	ldr	r3, [r4, #8]
  513928:	42ab      	cmp	r3, r5
  51392a:	4607      	mov	r7, r0
  51392c:	d104      	bne.n	513938 <mesh_start_stop_scan_callback+0x20>
  51392e:	68e3      	ldr	r3, [r4, #12]
  513930:	42b3      	cmp	r3, r6
  513932:	d111      	bne.n	513958 <mesh_start_stop_scan_callback+0x40>
  513934:	e8bd 81f0 	ldmia.w	sp!, {r4, r5, r6, r7, r8, pc}
  513938:	b173      	cbz	r3, 513958 <mesh_start_stop_scan_callback+0x40>
  51393a:	b115      	cbz	r5, 513942 <mesh_start_stop_scan_callback+0x2a>
  51393c:	68e3      	ldr	r3, [r4, #12]
  51393e:	42b3      	cmp	r3, r6
  513940:	d00c      	beq.n	51395c <mesh_start_stop_scan_callback+0x44>
  513942:	68e1      	ldr	r1, [r4, #12]
  513944:	4a1b      	ldr	r2, [pc, #108]	; (5139b4 <mesh_start_stop_scan_callback+0x9c>)
  513946:	b1f1      	cbz	r1, 513986 <mesh_start_stop_scan_callback+0x6e>
  513948:	2101      	movs	r1, #1
  51394a:	2000      	movs	r0, #0
  51394c:	4b1a      	ldr	r3, [pc, #104]	; (5139b8 <mesh_start_stop_scan_callback+0xa0>)
  51394e:	4798      	blx	r3
  513950:	2300      	movs	r3, #0
  513952:	60a3      	str	r3, [r4, #8]
  513954:	b915      	cbnz	r5, 51395c <mesh_start_stop_scan_callback+0x44>
  513956:	e7ed      	b.n	513934 <mesh_start_stop_scan_callback+0x1c>
  513958:	2d00      	cmp	r5, #0
  51395a:	d1ef      	bne.n	51393c <mesh_start_stop_scan_callback+0x24>
  51395c:	1c32      	adds	r2, r6, #0
  51395e:	4b17      	ldr	r3, [pc, #92]	; (5139bc <mesh_start_stop_scan_callback+0xa4>)
  513960:	bf18      	it	ne
  513962:	2201      	movne	r2, #1
  513964:	759a      	strb	r2, [r3, #22]
  513966:	2260      	movs	r2, #96	; 0x60
  513968:	841a      	strh	r2, [r3, #32]
  51396a:	4a15      	ldr	r2, [pc, #84]	; (5139c0 <mesh_start_stop_scan_callback+0xa8>)
  51396c:	8a12      	ldrh	r2, [r2, #16]
  51396e:	0752      	lsls	r2, r2, #29
  513970:	d40d      	bmi.n	51398e <mesh_start_stop_scan_callback+0x76>
  513972:	2101      	movs	r1, #1
  513974:	e9c4 1602 	strd	r1, r6, [r4, #8]
  513978:	4a0e      	ldr	r2, [pc, #56]	; (5139b4 <mesh_start_stop_scan_callback+0x9c>)
  51397a:	b186      	cbz	r6, 51399e <mesh_start_stop_scan_callback+0x86>
  51397c:	4608      	mov	r0, r1
  51397e:	4b0e      	ldr	r3, [pc, #56]	; (5139b8 <mesh_start_stop_scan_callback+0xa0>)
  513980:	e8bd 41f0 	ldmia.w	sp!, {r4, r5, r6, r7, r8, lr}
  513984:	4718      	bx	r3
  513986:	4608      	mov	r0, r1
  513988:	4b0e      	ldr	r3, [pc, #56]	; (5139c4 <mesh_start_stop_scan_callback+0xac>)
  51398a:	4798      	blx	r3
  51398c:	e7e0      	b.n	513950 <mesh_start_stop_scan_callback+0x38>
  51398e:	2f00      	cmp	r7, #0
  513990:	d1ef      	bne.n	513972 <mesh_start_stop_scan_callback+0x5a>
  513992:	6922      	ldr	r2, [r4, #16]
  513994:	2a00      	cmp	r2, #0
  513996:	d1ec      	bne.n	513972 <mesh_start_stop_scan_callback+0x5a>
  513998:	2230      	movs	r2, #48	; 0x30
  51399a:	841a      	strh	r2, [r3, #32]
  51399c:	e7e9      	b.n	513972 <mesh_start_stop_scan_callback+0x5a>
  51399e:	4631      	mov	r1, r6
  5139a0:	4628      	mov	r0, r5
  5139a2:	4b08      	ldr	r3, [pc, #32]	; (5139c4 <mesh_start_stop_scan_callback+0xac>)
  5139a4:	e8bd 41f0 	ldmia.w	sp!, {r4, r5, r6, r7, r8, lr}
  5139a8:	4718      	bx	r3
  5139aa:	bf00      	nop
  5139ac:	002102d8 	.word	0x002102d8
  5139b0:	005169a1 	.word	0x005169a1
  5139b4:	005139c9 	.word	0x005139c9
  5139b8:	002732a5 	.word	0x002732a5
  5139bc:	0020ff94 	.word	0x0020ff94
  5139c0:	00210078 	.word	0x00210078
  5139c4:	0008a1d9 	.word	0x0008a1d9

005139c8 <mesh_adv_report>:
  5139c8:	b130      	cbz	r0, 5139d8 <mesh_adv_report+0x10>
  5139ca:	79c3      	ldrb	r3, [r0, #7]
  5139cc:	2b03      	cmp	r3, #3
  5139ce:	d103      	bne.n	5139d8 <mesh_adv_report+0x10>
  5139d0:	f990 0008 	ldrsb.w	r0, [r0, #8]
  5139d4:	4b01      	ldr	r3, [pc, #4]	; (5139dc <mesh_adv_report+0x14>)
  5139d6:	4718      	bx	r3
  5139d8:	4770      	bx	lr
  5139da:	bf00      	nop
  5139dc:	00517cb1 	.word	0x00517cb1

005139e0 <mesh_nvram_access>:
  5139e0:	b538      	push	{r3, r4, r5, lr}
  5139e2:	461c      	mov	r4, r3
  5139e4:	b28d      	uxth	r5, r1
  5139e6:	b928      	cbnz	r0, 5139f4 <mesh_nvram_access+0x14>
  5139e8:	4621      	mov	r1, r4
  5139ea:	9b04      	ldr	r3, [sp, #16]
  5139ec:	4c07      	ldr	r4, [pc, #28]	; (513a0c <mesh_nvram_access+0x2c>)
  5139ee:	4628      	mov	r0, r5
  5139f0:	47a0      	blx	r4
  5139f2:	bd38      	pop	{r3, r4, r5, pc}
  5139f4:	b123      	cbz	r3, 513a00 <mesh_nvram_access+0x20>
  5139f6:	4621      	mov	r1, r4
  5139f8:	9b04      	ldr	r3, [sp, #16]
  5139fa:	4c05      	ldr	r4, [pc, #20]	; (513a10 <mesh_nvram_access+0x30>)
  5139fc:	4628      	mov	r0, r5
  5139fe:	e7f7      	b.n	5139f0 <mesh_nvram_access+0x10>
  513a00:	4628      	mov	r0, r5
  513a02:	9904      	ldr	r1, [sp, #16]
  513a04:	4b03      	ldr	r3, [pc, #12]	; (513a14 <mesh_nvram_access+0x34>)
  513a06:	4798      	blx	r3
  513a08:	4620      	mov	r0, r4
  513a0a:	e7f2      	b.n	5139f2 <mesh_nvram_access+0x12>
  513a0c:	0008a5b3 	.word	0x0008a5b3
  513a10:	0008a597 	.word	0x0008a597
  513a14:	0008a5cd 	.word	0x0008a5cd

00513a18 <mesh_fault_test>:
  513a18:	e92d 41f3 	stmdb	sp!, {r0, r1, r4, r5, r6, r7, r8, lr}
  513a1c:	460f      	mov	r7, r1
  513a1e:	e9cd 1200 	strd	r1, r2, [sp]
  513a22:	2100      	movs	r1, #0
  513a24:	4616      	mov	r6, r2
  513a26:	461c      	mov	r4, r3
  513a28:	4a11      	ldr	r2, [pc, #68]	; (513a70 <mesh_fault_test+0x58>)
  513a2a:	f8df 804c 	ldr.w	r8, [pc, #76]	; 513a78 <mesh_fault_test+0x60>
  513a2e:	9d08      	ldr	r5, [sp, #32]
  513a30:	4603      	mov	r3, r0
  513a32:	4608      	mov	r0, r1
  513a34:	47c0      	blx	r8
  513a36:	b9cf      	cbnz	r7, 513a6c <mesh_fault_test+0x54>
  513a38:	4b0e      	ldr	r3, [pc, #56]	; (513a74 <mesh_fault_test+0x5c>)
  513a3a:	881b      	ldrh	r3, [r3, #0]
  513a3c:	42b3      	cmp	r3, r6
  513a3e:	d115      	bne.n	513a6c <mesh_fault_test+0x54>
  513a40:	b164      	cbz	r4, 513a5c <mesh_fault_test+0x44>
  513a42:	2301      	movs	r3, #1
  513a44:	429c      	cmp	r4, r3
  513a46:	702b      	strb	r3, [r5, #0]
  513a48:	d00a      	beq.n	513a60 <mesh_fault_test+0x48>
  513a4a:	2202      	movs	r2, #2
  513a4c:	4294      	cmp	r4, r2
  513a4e:	f103 0001 	add.w	r0, r3, #1
  513a52:	54ea      	strb	r2, [r5, r3]
  513a54:	d105      	bne.n	513a62 <mesh_fault_test+0x4a>
  513a56:	b002      	add	sp, #8
  513a58:	e8bd 81f0 	ldmia.w	sp!, {r4, r5, r6, r7, r8, pc}
  513a5c:	4623      	mov	r3, r4
  513a5e:	e7f4      	b.n	513a4a <mesh_fault_test+0x32>
  513a60:	4620      	mov	r0, r4
  513a62:	1c43      	adds	r3, r0, #1
  513a64:	2203      	movs	r2, #3
  513a66:	542a      	strb	r2, [r5, r0]
  513a68:	b2d8      	uxtb	r0, r3
  513a6a:	e7f4      	b.n	513a56 <mesh_fault_test+0x3e>
  513a6c:	20ff      	movs	r0, #255	; 0xff
  513a6e:	e7f2      	b.n	513a56 <mesh_fault_test+0x3e>
  513a70:	00527cfc 	.word	0x00527cfc
  513a74:	00210078 	.word	0x00210078
  513a78:	000d3259 	.word	0x000d3259

00513a7c <mesh_publication_callback>:
  513a7c:	e92d 41ff 	stmdb	sp!, {r0, r1, r2, r3, r4, r5, r6, r7, r8, lr}
  513a80:	460e      	mov	r6, r1
  513a82:	9100      	str	r1, [sp, #0]
  513a84:	2100      	movs	r1, #0
  513a86:	e9cd 2301 	strd	r2, r3, [sp, #4]
  513a8a:	4698      	mov	r8, r3
  513a8c:	4604      	mov	r4, r0
  513a8e:	4603      	mov	r3, r0
  513a90:	4617      	mov	r7, r2
  513a92:	4608      	mov	r0, r1
  513a94:	4a2c      	ldr	r2, [pc, #176]	; (513b48 <mesh_publication_callback+0xcc>)
  513a96:	4d2d      	ldr	r5, [pc, #180]	; (513b4c <mesh_publication_callback+0xd0>)
  513a98:	47a8      	blx	r5
  513a9a:	f64f 73ff 	movw	r3, #65535	; 0xffff
  513a9e:	4598      	cmp	r8, r3
  513aa0:	d00f      	beq.n	513ac2 <mesh_publication_callback+0x46>
  513aa2:	4b2b      	ldr	r3, [pc, #172]	; (513b50 <mesh_publication_callback+0xd4>)
  513aa4:	691d      	ldr	r5, [r3, #16]
  513aa6:	b90d      	cbnz	r5, 513aac <mesh_publication_callback+0x30>
  513aa8:	2400      	movs	r4, #0
  513aaa:	e046      	b.n	513b3a <mesh_publication_callback+0xbe>
  513aac:	2364      	movs	r3, #100	; 0x64
  513aae:	fb03 f308 	mul.w	r3, r3, r8
  513ab2:	463a      	mov	r2, r7
  513ab4:	4631      	mov	r1, r6
  513ab6:	4620      	mov	r0, r4
  513ab8:	46ac      	mov	ip, r5
  513aba:	b004      	add	sp, #16
  513abc:	e8bd 41f0 	ldmia.w	sp!, {r4, r5, r6, r7, r8, lr}
  513ac0:	4760      	bx	ip
  513ac2:	4b24      	ldr	r3, [pc, #144]	; (513b54 <mesh_publication_callback+0xd8>)
  513ac4:	f893 202e 	ldrb.w	r2, [r3, #46]	; 0x2e
  513ac8:	42a2      	cmp	r2, r4
  513aca:	d91c      	bls.n	513b06 <mesh_publication_callback+0x8a>
  513acc:	f8d3 102f 	ldr.w	r1, [r3, #47]	; 0x2f
  513ad0:	ebc4 03c4 	rsb	r3, r4, r4, lsl #3
  513ad4:	eb04 0383 	add.w	r3, r4, r3, lsl #2
  513ad8:	4419      	add	r1, r3
  513ada:	2200      	movs	r2, #0
  513adc:	7e08      	ldrb	r0, [r1, #24]
  513ade:	b2d3      	uxtb	r3, r2
  513ae0:	4298      	cmp	r0, r3
  513ae2:	d910      	bls.n	513b06 <mesh_publication_callback+0x8a>
  513ae4:	f8d1 3019 	ldr.w	r3, [r1, #25]
  513ae8:	eb03 1302 	add.w	r3, r3, r2, lsl #4
  513aec:	f8b3 c000 	ldrh.w	ip, [r3]
  513af0:	45b4      	cmp	ip, r6
  513af2:	d10d      	bne.n	513b10 <mesh_publication_callback+0x94>
  513af4:	f8b3 c002 	ldrh.w	ip, [r3, #2]
  513af8:	45bc      	cmp	ip, r7
  513afa:	d109      	bne.n	513b10 <mesh_publication_callback+0x94>
  513afc:	f8d3 8004 	ldr.w	r8, [r3, #4]
  513b00:	f1b8 0f00 	cmp.w	r8, #0
  513b04:	d106      	bne.n	513b14 <mesh_publication_callback+0x98>
  513b06:	2100      	movs	r1, #0
  513b08:	4a13      	ldr	r2, [pc, #76]	; (513b58 <mesh_publication_callback+0xdc>)
  513b0a:	4608      	mov	r0, r1
  513b0c:	47a8      	blx	r5
  513b0e:	e7cb      	b.n	513aa8 <mesh_publication_callback+0x2c>
  513b10:	3201      	adds	r2, #1
  513b12:	e7e4      	b.n	513ade <mesh_publication_callback+0x62>
  513b14:	2500      	movs	r5, #0
  513b16:	4631      	mov	r1, r6
  513b18:	4620      	mov	r0, r4
  513b1a:	9500      	str	r5, [sp, #0]
  513b1c:	462b      	mov	r3, r5
  513b1e:	463a      	mov	r2, r7
  513b20:	4c0e      	ldr	r4, [pc, #56]	; (513b5c <mesh_publication_callback+0xe0>)
  513b22:	47a0      	blx	r4
  513b24:	4606      	mov	r6, r0
  513b26:	2800      	cmp	r0, #0
  513b28:	d0be      	beq.n	513aa8 <mesh_publication_callback+0x2c>
  513b2a:	462a      	mov	r2, r5
  513b2c:	4629      	mov	r1, r5
  513b2e:	47c0      	blx	r8
  513b30:	4604      	mov	r4, r0
  513b32:	b930      	cbnz	r0, 513b42 <mesh_publication_callback+0xc6>
  513b34:	4630      	mov	r0, r6
  513b36:	4b0a      	ldr	r3, [pc, #40]	; (513b60 <mesh_publication_callback+0xe4>)
  513b38:	4798      	blx	r3
  513b3a:	4620      	mov	r0, r4
  513b3c:	b004      	add	sp, #16
  513b3e:	e8bd 81f0 	ldmia.w	sp!, {r4, r5, r6, r7, r8, pc}
  513b42:	2401      	movs	r4, #1
  513b44:	e7f9      	b.n	513b3a <mesh_publication_callback+0xbe>
  513b46:	bf00      	nop
  513b48:	00527d32 	.word	0x00527d32
  513b4c:	000d3259 	.word	0x000d3259
  513b50:	002100c0 	.word	0x002100c0
  513b54:	00210078 	.word	0x00210078
  513b58:	00527d7b 	.word	0x00527d7b
  513b5c:	00525a75 	.word	0x00525a75
  513b60:	00525b41 	.word	0x00525b41

00513b64 <application_start>:
  513b64:	e92d 4ff0 	stmdb	sp!, {r4, r5, r6, r7, r8, r9, sl, fp, lr}
  513b68:	4b57      	ldr	r3, [pc, #348]	; (513cc8 <application_start+0x164>)
  513b6a:	b087      	sub	sp, #28
  513b6c:	4798      	blx	r3
  513b6e:	4b57      	ldr	r3, [pc, #348]	; (513ccc <application_start+0x168>)
  513b70:	685a      	ldr	r2, [r3, #4]
  513b72:	2a00      	cmp	r2, #0
  513b74:	f000 80a2 	beq.w	513cbc <application_start+0x158>
  513b78:	4790      	blx	r2
  513b7a:	4a55      	ldr	r2, [pc, #340]	; (513cd0 <application_start+0x16c>)
  513b7c:	4955      	ldr	r1, [pc, #340]	; (513cd4 <application_start+0x170>)
  513b7e:	f8df 91d4 	ldr.w	r9, [pc, #468]	; 513d54 <application_start+0x1f0>
  513b82:	4b55      	ldr	r3, [pc, #340]	; (513cd8 <application_start+0x174>)
  513b84:	4855      	ldr	r0, [pc, #340]	; (513cdc <application_start+0x178>)
  513b86:	f8df 81d0 	ldr.w	r8, [pc, #464]	; 513d58 <application_start+0x1f4>
  513b8a:	f8df a1d0 	ldr.w	sl, [pc, #464]	; 513d5c <application_start+0x1f8>
  513b8e:	f8df b1d0 	ldr.w	fp, [pc, #464]	; 513d60 <application_start+0x1fc>
  513b92:	4d53      	ldr	r5, [pc, #332]	; (513ce0 <application_start+0x17c>)
  513b94:	4798      	blx	r3
  513b96:	2304      	movs	r3, #4
  513b98:	f889 3000 	strb.w	r3, [r9]
  513b9c:	2308      	movs	r3, #8
  513b9e:	f888 3000 	strb.w	r3, [r8]
  513ba2:	230a      	movs	r3, #10
  513ba4:	f88a 3000 	strb.w	r3, [sl]
  513ba8:	2310      	movs	r3, #16
  513baa:	f88b 3000 	strb.w	r3, [fp]
  513bae:	484d      	ldr	r0, [pc, #308]	; (513ce4 <application_start+0x180>)
  513bb0:	4b4d      	ldr	r3, [pc, #308]	; (513ce8 <application_start+0x184>)
  513bb2:	4798      	blx	r3
  513bb4:	4607      	mov	r7, r0
  513bb6:	f241 300f 	movw	r0, #4879	; 0x130f
  513bba:	47a8      	blx	r5
  513bbc:	f643 76ff 	movw	r6, #16383	; 0x3fff
  513bc0:	1a30      	subs	r0, r6, r0
  513bc2:	4b4a      	ldr	r3, [pc, #296]	; (513cec <application_start+0x188>)
  513bc4:	b284      	uxth	r4, r0
  513bc6:	f241 3007 	movw	r0, #4871	; 0x1307
  513bca:	801c      	strh	r4, [r3, #0]
  513bcc:	47a8      	blx	r5
  513bce:	4b48      	ldr	r3, [pc, #288]	; (513cf0 <application_start+0x18c>)
  513bd0:	1a24      	subs	r4, r4, r0
  513bd2:	b2a4      	uxth	r4, r4
  513bd4:	f241 3003 	movw	r0, #4867	; 0x1303
  513bd8:	801c      	strh	r4, [r3, #0]
  513bda:	47a8      	blx	r5
  513bdc:	4b45      	ldr	r3, [pc, #276]	; (513cf4 <application_start+0x190>)
  513bde:	1a24      	subs	r4, r4, r0
  513be0:	b2a4      	uxth	r4, r4
  513be2:	f241 300c 	movw	r0, #4876	; 0x130c
  513be6:	801c      	strh	r4, [r3, #0]
  513be8:	47a8      	blx	r5
  513bea:	4b43      	ldr	r3, [pc, #268]	; (513cf8 <application_start+0x194>)
  513bec:	1a24      	subs	r4, r4, r0
  513bee:	b2a4      	uxth	r4, r4
  513bf0:	f44f 5098 	mov.w	r0, #4864	; 0x1300
  513bf4:	801c      	strh	r4, [r3, #0]
  513bf6:	47a8      	blx	r5
  513bf8:	4b40      	ldr	r3, [pc, #256]	; (513cfc <application_start+0x198>)
  513bfa:	1a24      	subs	r4, r4, r0
  513bfc:	b2a4      	uxth	r4, r4
  513bfe:	f241 0009 	movw	r0, #4105	; 0x1009
  513c02:	801c      	strh	r4, [r3, #0]
  513c04:	47a8      	blx	r5
  513c06:	4b3e      	ldr	r3, [pc, #248]	; (513d00 <application_start+0x19c>)
  513c08:	1a24      	subs	r4, r4, r0
  513c0a:	b2a4      	uxth	r4, r4
  513c0c:	f241 0006 	movw	r0, #4102	; 0x1006
  513c10:	801c      	strh	r4, [r3, #0]
  513c12:	47a8      	blx	r5
  513c14:	4a3b      	ldr	r2, [pc, #236]	; (513d04 <application_start+0x1a0>)
  513c16:	1a20      	subs	r0, r4, r0
  513c18:	b283      	uxth	r3, r0
  513c1a:	8013      	strh	r3, [r2, #0]
  513c1c:	4a3a      	ldr	r2, [pc, #232]	; (513d08 <application_start+0x1a4>)
  513c1e:	f898 0000 	ldrb.w	r0, [r8]
  513c22:	4c3a      	ldr	r4, [pc, #232]	; (513d0c <application_start+0x1a8>)
  513c24:	3b01      	subs	r3, #1
  513c26:	b29b      	uxth	r3, r3
  513c28:	8013      	strh	r3, [r2, #0]
  513c2a:	f89b 2000 	ldrb.w	r2, [fp]
  513c2e:	1a9b      	subs	r3, r3, r2
  513c30:	4a37      	ldr	r2, [pc, #220]	; (513d10 <application_start+0x1ac>)
  513c32:	b29b      	uxth	r3, r3
  513c34:	8013      	strh	r3, [r2, #0]
  513c36:	4a37      	ldr	r2, [pc, #220]	; (513d14 <application_start+0x1b0>)
  513c38:	3b01      	subs	r3, #1
  513c3a:	b29b      	uxth	r3, r3
  513c3c:	8013      	strh	r3, [r2, #0]
  513c3e:	f89a 2000 	ldrb.w	r2, [sl]
  513c42:	1a9b      	subs	r3, r3, r2
  513c44:	4a34      	ldr	r2, [pc, #208]	; (513d18 <application_start+0x1b4>)
  513c46:	b29b      	uxth	r3, r3
  513c48:	8013      	strh	r3, [r2, #0]
  513c4a:	4a34      	ldr	r2, [pc, #208]	; (513d1c <application_start+0x1b8>)
  513c4c:	1e59      	subs	r1, r3, #1
  513c4e:	8011      	strh	r1, [r2, #0]
  513c50:	4a33      	ldr	r2, [pc, #204]	; (513d20 <application_start+0x1bc>)
  513c52:	1e99      	subs	r1, r3, #2
  513c54:	8011      	strh	r1, [r2, #0]
  513c56:	4a33      	ldr	r2, [pc, #204]	; (513d24 <application_start+0x1c0>)
  513c58:	1ed9      	subs	r1, r3, #3
  513c5a:	8011      	strh	r1, [r2, #0]
  513c5c:	1f1a      	subs	r2, r3, #4
  513c5e:	4b32      	ldr	r3, [pc, #200]	; (513d28 <application_start+0x1c4>)
  513c60:	4932      	ldr	r1, [pc, #200]	; (513d2c <application_start+0x1c8>)
  513c62:	b292      	uxth	r2, r2
  513c64:	801a      	strh	r2, [r3, #0]
  513c66:	f899 3000 	ldrb.w	r3, [r9]
  513c6a:	1ad2      	subs	r2, r2, r3
  513c6c:	b292      	uxth	r2, r2
  513c6e:	800a      	strh	r2, [r1, #0]
  513c70:	1a12      	subs	r2, r2, r0
  513c72:	492f      	ldr	r1, [pc, #188]	; (513d30 <application_start+0x1cc>)
  513c74:	b292      	uxth	r2, r2
  513c76:	800a      	strh	r2, [r1, #0]
  513c78:	492e      	ldr	r1, [pc, #184]	; (513d34 <application_start+0x1d0>)
  513c7a:	3a01      	subs	r2, #1
  513c7c:	b292      	uxth	r2, r2
  513c7e:	800a      	strh	r2, [r1, #0]
  513c80:	f207 11eb 	addw	r1, r7, #491	; 0x1eb
  513c84:	fb91 f1f4 	sdiv	r1, r1, r4
  513c88:	4c2b      	ldr	r4, [pc, #172]	; (513d38 <application_start+0x1d4>)
  513c8a:	4411      	add	r1, r2
  513c8c:	b289      	uxth	r1, r1
  513c8e:	8021      	strh	r1, [r4, #0]
  513c90:	4c2a      	ldr	r4, [pc, #168]	; (513d3c <application_start+0x1d8>)
  513c92:	3901      	subs	r1, #1
  513c94:	b289      	uxth	r1, r1
  513c96:	8021      	strh	r1, [r4, #0]
  513c98:	e9cd 1201 	strd	r1, r2, [sp, #4]
  513c9c:	2100      	movs	r1, #0
  513c9e:	9000      	str	r0, [sp, #0]
  513ca0:	4c27      	ldr	r4, [pc, #156]	; (513d40 <application_start+0x1dc>)
  513ca2:	4a28      	ldr	r2, [pc, #160]	; (513d44 <application_start+0x1e0>)
  513ca4:	e9cd 6703 	strd	r6, r7, [sp, #12]
  513ca8:	4608      	mov	r0, r1
  513caa:	47a0      	blx	r4
  513cac:	2100      	movs	r1, #0
  513cae:	4a26      	ldr	r2, [pc, #152]	; (513d48 <application_start+0x1e4>)
  513cb0:	4608      	mov	r0, r1
  513cb2:	4623      	mov	r3, r4
  513cb4:	b007      	add	sp, #28
  513cb6:	e8bd 4ff0 	ldmia.w	sp!, {r4, r5, r6, r7, r8, r9, sl, fp, lr}
  513cba:	4718      	bx	r3
  513cbc:	230d      	movs	r3, #13
  513cbe:	4923      	ldr	r1, [pc, #140]	; (513d4c <application_start+0x1e8>)
  513cc0:	4c23      	ldr	r4, [pc, #140]	; (513d50 <application_start+0x1ec>)
  513cc2:	4610      	mov	r0, r2
  513cc4:	47a0      	blx	r4
  513cc6:	e758      	b.n	513b7a <application_start+0x16>
  513cc8:	005133f5 	.word	0x005133f5
  513ccc:	002100c0 	.word	0x002100c0
  513cd0:	00527286 	.word	0x00527286
  513cd4:	0020ff94 	.word	0x0020ff94
  513cd8:	0003f17f 	.word	0x0003f17f
  513cdc:	00514309 	.word	0x00514309
  513ce0:	00513755 	.word	0x00513755
  513ce4:	00210078 	.word	0x00210078
  513ce8:	0051de7d 	.word	0x0051de7d
  513cec:	00210eb4 	.word	0x00210eb4
  513cf0:	00210eaa 	.word	0x00210eaa
  513cf4:	00210ea8 	.word	0x00210ea8
  513cf8:	00210eac 	.word	0x00210eac
  513cfc:	00210ea6 	.word	0x00210ea6
  513d00:	00210ea4 	.word	0x00210ea4
  513d04:	00210ea2 	.word	0x00210ea2
  513d08:	00210ea0 	.word	0x00210ea0
  513d0c:	fffffe14 	.word	0xfffffe14
  513d10:	00210f4c 	.word	0x00210f4c
  513d14:	00210ef4 	.word	0x00210ef4
  513d18:	00210ef0 	.word	0x00210ef0
  513d1c:	00210f48 	.word	0x00210f48
  513d20:	00210be6 	.word	0x00210be6
  513d24:	00210b86 	.word	0x00210b86
  513d28:	00210af8 	.word	0x00210af8
  513d2c:	00210b88 	.word	0x00210b88
  513d30:	00210bfa 	.word	0x00210bfa
  513d34:	00210bf8 	.word	0x00210bf8
  513d38:	00210be4 	.word	0x00210be4
  513d3c:	002106d0 	.word	0x002106d0
  513d40:	000d3259 	.word	0x000d3259
  513d44:	00527d85 	.word	0x00527d85
  513d48:	00527de2 	.word	0x00527de2
  513d4c:	00513d9d 	.word	0x00513d9d
  513d50:	0051227d 	.word	0x0051227d
  513d54:	00205e61 	.word	0x00205e61
  513d58:	00205eec 	.word	0x00205eec
  513d5c:	00210ef2 	.word	0x00210ef2
  513d60:	00210f4e 	.word	0x00210f4e

00513d64 <mesh_application_factory_reset>:
  513d64:	2100      	movs	r1, #0
  513d66:	b508      	push	{r3, lr}
  513d68:	4a07      	ldr	r2, [pc, #28]	; (513d88 <mesh_application_factory_reset+0x24>)
  513d6a:	4b08      	ldr	r3, [pc, #32]	; (513d8c <mesh_application_factory_reset+0x28>)
  513d6c:	4608      	mov	r0, r1
  513d6e:	4798      	blx	r3
  513d70:	4b07      	ldr	r3, [pc, #28]	; (513d90 <mesh_application_factory_reset+0x2c>)
  513d72:	69db      	ldr	r3, [r3, #28]
  513d74:	b103      	cbz	r3, 513d78 <mesh_application_factory_reset+0x14>
  513d76:	4798      	blx	r3
  513d78:	4b06      	ldr	r3, [pc, #24]	; (513d94 <mesh_application_factory_reset+0x30>)
  513d7a:	2000      	movs	r0, #0
  513d7c:	4798      	blx	r3
  513d7e:	4b06      	ldr	r3, [pc, #24]	; (513d98 <mesh_application_factory_reset+0x34>)
  513d80:	2200      	movs	r2, #0
  513d82:	e9c3 2204 	strd	r2, r2, [r3, #16]
  513d86:	bd08      	pop	{r3, pc}
  513d88:	00527dee 	.word	0x00527dee
  513d8c:	000d3259 	.word	0x000d3259
  513d90:	002100c0 	.word	0x002100c0
  513d94:	005179f1 	.word	0x005179f1
  513d98:	002102d8 	.word	0x002102d8

00513d9c <mesh_interrupt_handler>:
  513d9c:	b510      	push	{r4, lr}
  513d9e:	4608      	mov	r0, r1
  513da0:	4b03      	ldr	r3, [pc, #12]	; (513db0 <mesh_interrupt_handler+0x14>)
  513da2:	4798      	blx	r3
  513da4:	b118      	cbz	r0, 513dae <mesh_interrupt_handler+0x12>
  513da6:	4b03      	ldr	r3, [pc, #12]	; (513db4 <mesh_interrupt_handler+0x18>)
  513da8:	e8bd 4010 	ldmia.w	sp!, {r4, lr}
  513dac:	4718      	bx	r3
  513dae:	bd10      	pop	{r4, pc}
  513db0:	00083343 	.word	0x00083343
  513db4:	00513d65 	.word	0x00513d65

00513db8 <mesh_state_changed_cb>:
  513db8:	e92d 41f0 	stmdb	sp!, {r4, r5, r6, r7, r8, lr}
  513dbc:	460c      	mov	r4, r1
  513dbe:	b088      	sub	sp, #32
  513dc0:	2812      	cmp	r0, #18
  513dc2:	d82d      	bhi.n	513e20 <mesh_state_changed_cb+0x68>
  513dc4:	e8df f010 	tbh	[pc, r0, lsl #1]
  513dc8:	002c002f 	.word	0x002c002f
  513dcc:	002c002c 	.word	0x002c002c
  513dd0:	002c002c 	.word	0x002c002c
  513dd4:	002c002c 	.word	0x002c002c
  513dd8:	002c002c 	.word	0x002c002c
  513ddc:	002c002c 	.word	0x002c002c
  513de0:	009d002c 	.word	0x009d002c
  513de4:	00e700cf 	.word	0x00e700cf
  513de8:	00f600dc 	.word	0x00f600dc
  513dec:	0013      	.short	0x0013
  513dee:	4c76      	ldr	r4, [pc, #472]	; (513fc8 <mesh_state_changed_cb+0x210>)
  513df0:	4a76      	ldr	r2, [pc, #472]	; (513fcc <mesh_state_changed_cb+0x214>)
  513df2:	8ba3      	ldrh	r3, [r4, #28]
  513df4:	4d76      	ldr	r5, [pc, #472]	; (513fd0 <mesh_state_changed_cb+0x218>)
  513df6:	2100      	movs	r1, #0
  513df8:	4608      	mov	r0, r1
  513dfa:	47a8      	blx	r5
  513dfc:	4875      	ldr	r0, [pc, #468]	; (513fd4 <mesh_state_changed_cb+0x21c>)
  513dfe:	2300      	movs	r3, #0
  513e00:	7723      	strb	r3, [r4, #28]
  513e02:	7763      	strb	r3, [r4, #29]
  513e04:	f104 0218 	add.w	r2, r4, #24
  513e08:	ab06      	add	r3, sp, #24
  513e0a:	2106      	movs	r1, #6
  513e0c:	8800      	ldrh	r0, [r0, #0]
  513e0e:	4c72      	ldr	r4, [pc, #456]	; (513fd8 <mesh_state_changed_cb+0x220>)
  513e10:	47a0      	blx	r4
  513e12:	2806      	cmp	r0, #6
  513e14:	d102      	bne.n	513e1c <mesh_state_changed_cb+0x64>
  513e16:	f8bd 3018 	ldrh.w	r3, [sp, #24]
  513e1a:	b10b      	cbz	r3, 513e20 <mesh_state_changed_cb+0x68>
  513e1c:	4b6f      	ldr	r3, [pc, #444]	; (513fdc <mesh_state_changed_cb+0x224>)
  513e1e:	4798      	blx	r3
  513e20:	b008      	add	sp, #32
  513e22:	e8bd 81f0 	ldmia.w	sp!, {r4, r5, r6, r7, r8, pc}
  513e26:	880b      	ldrh	r3, [r1, #0]
  513e28:	b9fb      	cbnz	r3, 513e6a <mesh_state_changed_cb+0xb2>
  513e2a:	6849      	ldr	r1, [r1, #4]
  513e2c:	4a66      	ldr	r2, [pc, #408]	; (513fc8 <mesh_state_changed_cb+0x210>)
  513e2e:	f44f 707a 	mov.w	r0, #1000	; 0x3e8
  513e32:	fbb1 f3f0 	udiv	r3, r1, r0
  513e36:	fb00 1313 	mls	r3, r0, r3, r1
  513e3a:	6191      	str	r1, [r2, #24]
  513e3c:	b96b      	cbnz	r3, 513e5a <mesh_state_changed_cb+0xa2>
  513e3e:	4865      	ldr	r0, [pc, #404]	; (513fd4 <mesh_state_changed_cb+0x21c>)
  513e40:	4d65      	ldr	r5, [pc, #404]	; (513fd8 <mesh_state_changed_cb+0x220>)
  513e42:	8800      	ldrh	r0, [r0, #0]
  513e44:	f10d 0316 	add.w	r3, sp, #22
  513e48:	3218      	adds	r2, #24
  513e4a:	2106      	movs	r1, #6
  513e4c:	47a8      	blx	r5
  513e4e:	2806      	cmp	r0, #6
  513e50:	d1e4      	bne.n	513e1c <mesh_state_changed_cb+0x64>
  513e52:	f8bd 3016 	ldrh.w	r3, [sp, #22]
  513e56:	2b00      	cmp	r3, #0
  513e58:	d1e0      	bne.n	513e1c <mesh_state_changed_cb+0x64>
  513e5a:	4b5b      	ldr	r3, [pc, #364]	; (513fc8 <mesh_state_changed_cb+0x210>)
  513e5c:	6a1b      	ldr	r3, [r3, #32]
  513e5e:	2b00      	cmp	r3, #0
  513e60:	d0de      	beq.n	513e20 <mesh_state_changed_cb+0x68>
  513e62:	4b5f      	ldr	r3, [pc, #380]	; (513fe0 <mesh_state_changed_cb+0x228>)
  513e64:	4620      	mov	r0, r4
  513e66:	4798      	blx	r3
  513e68:	e7da      	b.n	513e20 <mesh_state_changed_cb+0x68>
  513e6a:	4d5a      	ldr	r5, [pc, #360]	; (513fd4 <mesh_state_changed_cb+0x21c>)
  513e6c:	4e5a      	ldr	r6, [pc, #360]	; (513fd8 <mesh_state_changed_cb+0x220>)
  513e6e:	8828      	ldrh	r0, [r5, #0]
  513e70:	f64f 72ff 	movw	r2, #65535	; 0xffff
  513e74:	4293      	cmp	r3, r2
  513e76:	d109      	bne.n	513e8c <mesh_state_changed_cb+0xd4>
  513e78:	4a53      	ldr	r2, [pc, #332]	; (513fc8 <mesh_state_changed_cb+0x210>)
  513e7a:	2300      	movs	r3, #0
  513e7c:	7713      	strb	r3, [r2, #28]
  513e7e:	7753      	strb	r3, [r2, #29]
  513e80:	f10d 0316 	add.w	r3, sp, #22
  513e84:	3218      	adds	r2, #24
  513e86:	2106      	movs	r1, #6
  513e88:	47b0      	blx	r6
  513e8a:	e7e0      	b.n	513e4e <mesh_state_changed_cb+0x96>
  513e8c:	7a0a      	ldrb	r2, [r1, #8]
  513e8e:	f8ad 3018 	strh.w	r3, [sp, #24]
  513e92:	b12a      	cbz	r2, 513ea0 <mesh_state_changed_cb+0xe8>
  513e94:	ea6f 4343 	mvn.w	r3, r3, lsl #17
  513e98:	ea6f 4353 	mvn.w	r3, r3, lsr #17
  513e9c:	f8ad 3018 	strh.w	r3, [sp, #24]
  513ea0:	6863      	ldr	r3, [r4, #4]
  513ea2:	f88d 301a 	strb.w	r3, [sp, #26]
  513ea6:	0a1a      	lsrs	r2, r3, #8
  513ea8:	0c1b      	lsrs	r3, r3, #16
  513eaa:	f88d 301c 	strb.w	r3, [sp, #28]
  513eae:	8963      	ldrh	r3, [r4, #10]
  513eb0:	f88d 201b 	strb.w	r2, [sp, #27]
  513eb4:	3801      	subs	r0, #1
  513eb6:	1ac0      	subs	r0, r0, r3
  513eb8:	aa06      	add	r2, sp, #24
  513eba:	f10d 0316 	add.w	r3, sp, #22
  513ebe:	2105      	movs	r1, #5
  513ec0:	b280      	uxth	r0, r0
  513ec2:	47b0      	blx	r6
  513ec4:	2805      	cmp	r0, #5
  513ec6:	d1a9      	bne.n	513e1c <mesh_state_changed_cb+0x64>
  513ec8:	f8bd 3016 	ldrh.w	r3, [sp, #22]
  513ecc:	2b00      	cmp	r3, #0
  513ece:	d1a5      	bne.n	513e1c <mesh_state_changed_cb+0x64>
  513ed0:	4f3d      	ldr	r7, [pc, #244]	; (513fc8 <mesh_state_changed_cb+0x210>)
  513ed2:	8962      	ldrh	r2, [r4, #10]
  513ed4:	8bbb      	ldrh	r3, [r7, #28]
  513ed6:	429a      	cmp	r2, r3
  513ed8:	d3bf      	bcc.n	513e5a <mesh_state_changed_cb+0xa2>
  513eda:	f8df 8138 	ldr.w	r8, [pc, #312]	; 514014 <mesh_state_changed_cb+0x25c>
  513ede:	8bbb      	ldrh	r3, [r7, #28]
  513ee0:	8962      	ldrh	r2, [r4, #10]
  513ee2:	8828      	ldrh	r0, [r5, #0]
  513ee4:	429a      	cmp	r2, r3
  513ee6:	d803      	bhi.n	513ef0 <mesh_state_changed_cb+0x138>
  513ee8:	f10d 0316 	add.w	r3, sp, #22
  513eec:	4a3d      	ldr	r2, [pc, #244]	; (513fe4 <mesh_state_changed_cb+0x22c>)
  513eee:	e7ca      	b.n	513e86 <mesh_state_changed_cb+0xce>
  513ef0:	3801      	subs	r0, #1
  513ef2:	1ac0      	subs	r0, r0, r3
  513ef4:	1c5a      	adds	r2, r3, #1
  513ef6:	f10d 0116 	add.w	r1, sp, #22
  513efa:	b280      	uxth	r0, r0
  513efc:	83ba      	strh	r2, [r7, #28]
  513efe:	47c0      	blx	r8
  513f00:	e7ed      	b.n	513ede <mesh_state_changed_cb+0x126>
  513f02:	688b      	ldr	r3, [r1, #8]
  513f04:	9302      	str	r3, [sp, #8]
  513f06:	684b      	ldr	r3, [r1, #4]
  513f08:	9301      	str	r3, [sp, #4]
  513f0a:	680b      	ldr	r3, [r1, #0]
  513f0c:	4d2e      	ldr	r5, [pc, #184]	; (513fc8 <mesh_state_changed_cb+0x210>)
  513f0e:	9300      	str	r3, [sp, #0]
  513f10:	2100      	movs	r1, #0
  513f12:	696b      	ldr	r3, [r5, #20]
  513f14:	4a34      	ldr	r2, [pc, #208]	; (513fe8 <mesh_state_changed_cb+0x230>)
  513f16:	4e2e      	ldr	r6, [pc, #184]	; (513fd0 <mesh_state_changed_cb+0x218>)
  513f18:	4608      	mov	r0, r1
  513f1a:	47b0      	blx	r6
  513f1c:	68a3      	ldr	r3, [r4, #8]
  513f1e:	4a33      	ldr	r2, [pc, #204]	; (513fec <mesh_state_changed_cb+0x234>)
  513f20:	612b      	str	r3, [r5, #16]
  513f22:	8a12      	ldrh	r2, [r2, #16]
  513f24:	0752      	lsls	r2, r2, #29
  513f26:	d50b      	bpl.n	513f40 <mesh_state_changed_cb+0x188>
  513f28:	696a      	ldr	r2, [r5, #20]
  513f2a:	b94a      	cbnz	r2, 513f40 <mesh_state_changed_cb+0x188>
  513f2c:	6822      	ldr	r2, [r4, #0]
  513f2e:	b902      	cbnz	r2, 513f32 <mesh_state_changed_cb+0x17a>
  513f30:	b133      	cbz	r3, 513f40 <mesh_state_changed_cb+0x188>
  513f32:	2100      	movs	r1, #0
  513f34:	4608      	mov	r0, r1
  513f36:	4e2e      	ldr	r6, [pc, #184]	; (513ff0 <mesh_state_changed_cb+0x238>)
  513f38:	47b0      	blx	r6
  513f3a:	2100      	movs	r1, #0
  513f3c:	2001      	movs	r0, #1
  513f3e:	47b0      	blx	r6
  513f40:	696b      	ldr	r3, [r5, #20]
  513f42:	6820      	ldr	r0, [r4, #0]
  513f44:	b163      	cbz	r3, 513f60 <mesh_state_changed_cb+0x1a8>
  513f46:	2800      	cmp	r0, #0
  513f48:	f47f af6a 	bne.w	513e20 <mesh_state_changed_cb+0x68>
  513f4c:	4b29      	ldr	r3, [pc, #164]	; (513ff4 <mesh_state_changed_cb+0x23c>)
  513f4e:	6168      	str	r0, [r5, #20]
  513f50:	4798      	blx	r3
  513f52:	4b29      	ldr	r3, [pc, #164]	; (513ff8 <mesh_state_changed_cb+0x240>)
  513f54:	681b      	ldr	r3, [r3, #0]
  513f56:	2b00      	cmp	r3, #0
  513f58:	f43f af62 	beq.w	513e20 <mesh_state_changed_cb+0x68>
  513f5c:	6968      	ldr	r0, [r5, #20]
  513f5e:	e782      	b.n	513e66 <mesh_state_changed_cb+0xae>
  513f60:	2800      	cmp	r0, #0
  513f62:	d1f3      	bne.n	513f4c <mesh_state_changed_cb+0x194>
  513f64:	e75c      	b.n	513e20 <mesh_state_changed_cb+0x68>
  513f66:	4b25      	ldr	r3, [pc, #148]	; (513ffc <mesh_state_changed_cb+0x244>)
  513f68:	680d      	ldr	r5, [r1, #0]
  513f6a:	888c      	ldrh	r4, [r1, #4]
  513f6c:	4798      	blx	r3
  513f6e:	2100      	movs	r1, #0
  513f70:	e9cd 4000 	strd	r4, r0, [sp]
  513f74:	462b      	mov	r3, r5
  513f76:	4a22      	ldr	r2, [pc, #136]	; (514000 <mesh_state_changed_cb+0x248>)
  513f78:	4c15      	ldr	r4, [pc, #84]	; (513fd0 <mesh_state_changed_cb+0x218>)
  513f7a:	4608      	mov	r0, r1
  513f7c:	47a0      	blx	r4
  513f7e:	e74f      	b.n	513e20 <mesh_state_changed_cb+0x68>
  513f80:	680b      	ldr	r3, [r1, #0]
  513f82:	4a20      	ldr	r2, [pc, #128]	; (514004 <mesh_state_changed_cb+0x24c>)
  513f84:	4d12      	ldr	r5, [pc, #72]	; (513fd0 <mesh_state_changed_cb+0x218>)
  513f86:	2100      	movs	r1, #0
  513f88:	4608      	mov	r0, r1
  513f8a:	47a8      	blx	r5
  513f8c:	2100      	movs	r1, #0
  513f8e:	6820      	ldr	r0, [r4, #0]
  513f90:	4b17      	ldr	r3, [pc, #92]	; (513ff0 <mesh_state_changed_cb+0x238>)
  513f92:	4798      	blx	r3
  513f94:	e744      	b.n	513e20 <mesh_state_changed_cb+0x68>
  513f96:	680b      	ldr	r3, [r1, #0]
  513f98:	4a1b      	ldr	r2, [pc, #108]	; (514008 <mesh_state_changed_cb+0x250>)
  513f9a:	4d0d      	ldr	r5, [pc, #52]	; (513fd0 <mesh_state_changed_cb+0x218>)
  513f9c:	2100      	movs	r1, #0
  513f9e:	4608      	mov	r0, r1
  513fa0:	47a8      	blx	r5
  513fa2:	4b1a      	ldr	r3, [pc, #104]	; (51400c <mesh_state_changed_cb+0x254>)
  513fa4:	4798      	blx	r3
  513fa6:	4b14      	ldr	r3, [pc, #80]	; (513ff8 <mesh_state_changed_cb+0x240>)
  513fa8:	699b      	ldr	r3, [r3, #24]
  513faa:	2b00      	cmp	r3, #0
  513fac:	f43f af38 	beq.w	513e20 <mesh_state_changed_cb+0x68>
  513fb0:	6820      	ldr	r0, [r4, #0]
  513fb2:	e758      	b.n	513e66 <mesh_state_changed_cb+0xae>
  513fb4:	888b      	ldrh	r3, [r1, #4]
  513fb6:	9300      	str	r3, [sp, #0]
  513fb8:	680b      	ldr	r3, [r1, #0]
  513fba:	4a15      	ldr	r2, [pc, #84]	; (514010 <mesh_state_changed_cb+0x258>)
  513fbc:	4c04      	ldr	r4, [pc, #16]	; (513fd0 <mesh_state_changed_cb+0x218>)
  513fbe:	2100      	movs	r1, #0
  513fc0:	4608      	mov	r0, r1
  513fc2:	47a0      	blx	r4
  513fc4:	e72c      	b.n	513e20 <mesh_state_changed_cb+0x68>
  513fc6:	bf00      	nop
  513fc8:	002102d8 	.word	0x002102d8
  513fcc:	00527e29 	.word	0x00527e29
  513fd0:	000d3259 	.word	0x000d3259
  513fd4:	002106d0 	.word	0x002106d0
  513fd8:	0008a597 	.word	0x0008a597
  513fdc:	00513d65 	.word	0x00513d65
  513fe0:	0051353d 	.word	0x0051353d
  513fe4:	002102f0 	.word	0x002102f0
  513fe8:	00527e3d 	.word	0x00527e3d
  513fec:	00210078 	.word	0x00210078
  513ff0:	00513919 	.word	0x00513919
  513ff4:	00513041 	.word	0x00513041
  513ff8:	002100c0 	.word	0x002100c0
  513ffc:	00522931 	.word	0x00522931
  514000:	00527e8b 	.word	0x00527e8b
  514004:	00527ecc 	.word	0x00527ecc
  514008:	00527ef5 	.word	0x00527ef5
  51400c:	0051357d 	.word	0x0051357d
  514010:	00527f22 	.word	0x00527f22
  514014:	0008a5cd 	.word	0x0008a5cd

00514018 <mesh_application_init>:
  514018:	e92d 4ff0 	stmdb	sp!, {r4, r5, r6, r7, r8, r9, sl, fp, lr}
  51401c:	b097      	sub	sp, #92	; 0x5c
  51401e:	2240      	movs	r2, #64	; 0x40
  514020:	2100      	movs	r1, #0
  514022:	4b8f      	ldr	r3, [pc, #572]	; (514260 <mesh_application_init+0x248>)
  514024:	4f8f      	ldr	r7, [pc, #572]	; (514264 <mesh_application_init+0x24c>)
  514026:	4e90      	ldr	r6, [pc, #576]	; (514268 <mesh_application_init+0x250>)
  514028:	4c90      	ldr	r4, [pc, #576]	; (51426c <mesh_application_init+0x254>)
  51402a:	4d91      	ldr	r5, [pc, #580]	; (514270 <mesh_application_init+0x258>)
  51402c:	a806      	add	r0, sp, #24
  51402e:	4798      	blx	r3
  514030:	47b8      	blx	r7
  514032:	2100      	movs	r1, #0
  514034:	4a8f      	ldr	r2, [pc, #572]	; (514274 <mesh_application_init+0x25c>)
  514036:	4603      	mov	r3, r0
  514038:	4608      	mov	r0, r1
  51403a:	47b0      	blx	r6
  51403c:	4b8e      	ldr	r3, [pc, #568]	; (514278 <mesh_application_init+0x260>)
  51403e:	4798      	blx	r3
  514040:	2100      	movs	r1, #0
  514042:	4608      	mov	r0, r1
  514044:	4b8d      	ldr	r3, [pc, #564]	; (51427c <mesh_application_init+0x264>)
  514046:	4798      	blx	r3
  514048:	4b8d      	ldr	r3, [pc, #564]	; (514280 <mesh_application_init+0x268>)
  51404a:	2001      	movs	r0, #1
  51404c:	4798      	blx	r3
  51404e:	3000      	adds	r0, #0
  514050:	bf18      	it	ne
  514052:	2001      	movne	r0, #1
  514054:	6220      	str	r0, [r4, #32]
  514056:	ab03      	add	r3, sp, #12
  514058:	aa06      	add	r2, sp, #24
  51405a:	2110      	movs	r1, #16
  51405c:	f240 2002 	movw	r0, #514	; 0x202
  514060:	47a8      	blx	r5
  514062:	2810      	cmp	r0, #16
  514064:	f000 80a8 	beq.w	5141b8 <mesh_application_init+0x1a0>
  514068:	f8df 9288 	ldr.w	r9, [pc, #648]	; 5142f4 <mesh_application_init+0x2dc>
  51406c:	f8df 8288 	ldr.w	r8, [pc, #648]	; 5142f8 <mesh_application_init+0x2e0>
  514070:	f44f 65fa 	mov.w	r5, #2000	; 0x7d0
  514074:	f44f 707a 	mov.w	r0, #1000	; 0x3e8
  514078:	47c8      	blx	r9
  51407a:	47c0      	blx	r8
  51407c:	3d01      	subs	r5, #1
  51407e:	d1f9      	bne.n	514074 <mesh_application_init+0x5c>
  514080:	f8df 8278 	ldr.w	r8, [pc, #632]	; 5142fc <mesh_application_init+0x2e4>
  514084:	f8df 9264 	ldr.w	r9, [pc, #612]	; 5142ec <mesh_application_init+0x2d4>
  514088:	47c0      	blx	r8
  51408a:	9004      	str	r0, [sp, #16]
  51408c:	47c0      	blx	r8
  51408e:	2206      	movs	r2, #6
  514090:	a904      	add	r1, sp, #16
  514092:	9005      	str	r0, [sp, #20]
  514094:	a80a      	add	r0, sp, #40	; 0x28
  514096:	47c8      	blx	r9
  514098:	f89d 3028 	ldrb.w	r3, [sp, #40]	; 0x28
  51409c:	f063 033f 	orn	r3, r3, #63	; 0x3f
  5140a0:	f88d 3028 	strb.w	r3, [sp, #40]	; 0x28
  5140a4:	47c0      	blx	r8
  5140a6:	9004      	str	r0, [sp, #16]
  5140a8:	47c0      	blx	r8
  5140aa:	f10d 0a2e 	add.w	sl, sp, #46	; 0x2e
  5140ae:	9005      	str	r0, [sp, #20]
  5140b0:	2206      	movs	r2, #6
  5140b2:	a904      	add	r1, sp, #16
  5140b4:	4650      	mov	r0, sl
  5140b6:	47c8      	blx	r9
  5140b8:	f89d 302e 	ldrb.w	r3, [sp, #46]	; 0x2e
  5140bc:	4a71      	ldr	r2, [pc, #452]	; (514284 <mesh_application_init+0x26c>)
  5140be:	f8cd a000 	str.w	sl, [sp]
  5140c2:	f063 033f 	orn	r3, r3, #63	; 0x3f
  5140c6:	f88d 302e 	strb.w	r3, [sp, #46]	; 0x2e
  5140ca:	4629      	mov	r1, r5
  5140cc:	ab0a      	add	r3, sp, #40	; 0x28
  5140ce:	4628      	mov	r0, r5
  5140d0:	47b0      	blx	r6
  5140d2:	2206      	movs	r2, #6
  5140d4:	a90a      	add	r1, sp, #40	; 0x28
  5140d6:	a806      	add	r0, sp, #24
  5140d8:	47c8      	blx	r9
  5140da:	2206      	movs	r2, #6
  5140dc:	4651      	mov	r1, sl
  5140de:	f10d 001e 	add.w	r0, sp, #30
  5140e2:	47c8      	blx	r9
  5140e4:	47c0      	blx	r8
  5140e6:	ab03      	add	r3, sp, #12
  5140e8:	9009      	str	r0, [sp, #36]	; 0x24
  5140ea:	aa06      	add	r2, sp, #24
  5140ec:	2110      	movs	r1, #16
  5140ee:	f240 2002 	movw	r0, #514	; 0x202
  5140f2:	f8df 81fc 	ldr.w	r8, [pc, #508]	; 5142f0 <mesh_application_init+0x2d8>
  5140f6:	47c0      	blx	r8
  5140f8:	f8bd 300c 	ldrh.w	r3, [sp, #12]
  5140fc:	4a62      	ldr	r2, [pc, #392]	; (514288 <mesh_application_init+0x270>)
  5140fe:	4629      	mov	r1, r5
  514100:	4628      	mov	r0, r5
  514102:	47b0      	blx	r6
  514104:	4629      	mov	r1, r5
  514106:	4a61      	ldr	r2, [pc, #388]	; (51428c <mesh_application_init+0x274>)
  514108:	4628      	mov	r0, r5
  51410a:	47b0      	blx	r6
  51410c:	2110      	movs	r1, #16
  51410e:	a806      	add	r0, sp, #24
  514110:	4b5f      	ldr	r3, [pc, #380]	; (514290 <mesh_application_init+0x278>)
  514112:	4798      	blx	r3
  514114:	4b5f      	ldr	r3, [pc, #380]	; (514294 <mesh_application_init+0x27c>)
  514116:	4d60      	ldr	r5, [pc, #384]	; (514298 <mesh_application_init+0x280>)
  514118:	f8df a1e4 	ldr.w	sl, [pc, #484]	; 514300 <mesh_application_init+0x2e8>
  51411c:	2200      	movs	r2, #0
  51411e:	701a      	strb	r2, [r3, #0]
  514120:	4b5e      	ldr	r3, [pc, #376]	; (51429c <mesh_application_init+0x284>)
  514122:	8a1a      	ldrh	r2, [r3, #16]
  514124:	930d      	str	r3, [sp, #52]	; 0x34
  514126:	f042 0210 	orr.w	r2, r2, #16
  51412a:	821a      	strh	r2, [r3, #16]
  51412c:	4b5c      	ldr	r3, [pc, #368]	; (5142a0 <mesh_application_init+0x288>)
  51412e:	930e      	str	r3, [sp, #56]	; 0x38
  514130:	4b5c      	ldr	r3, [pc, #368]	; (5142a4 <mesh_application_init+0x28c>)
  514132:	930f      	str	r3, [sp, #60]	; 0x3c
  514134:	4b5c      	ldr	r3, [pc, #368]	; (5142a8 <mesh_application_init+0x290>)
  514136:	9311      	str	r3, [sp, #68]	; 0x44
  514138:	4b5c      	ldr	r3, [pc, #368]	; (5142ac <mesh_application_init+0x294>)
  51413a:	9312      	str	r3, [sp, #72]	; 0x48
  51413c:	4b5c      	ldr	r3, [pc, #368]	; (5142b0 <mesh_application_init+0x298>)
  51413e:	9313      	str	r3, [sp, #76]	; 0x4c
  514140:	68eb      	ldr	r3, [r5, #12]
  514142:	9314      	str	r3, [sp, #80]	; 0x50
  514144:	4b5b      	ldr	r3, [pc, #364]	; (5142b4 <mesh_application_init+0x29c>)
  514146:	9315      	str	r3, [sp, #84]	; 0x54
  514148:	4b5b      	ldr	r3, [pc, #364]	; (5142b8 <mesh_application_init+0x2a0>)
  51414a:	9310      	str	r3, [sp, #64]	; 0x40
  51414c:	a806      	add	r0, sp, #24
  51414e:	4b5b      	ldr	r3, [pc, #364]	; (5142bc <mesh_application_init+0x2a4>)
  514150:	4798      	blx	r3
  514152:	fab0 f080 	clz	r0, r0
  514156:	0940      	lsrs	r0, r0, #5
  514158:	4b59      	ldr	r3, [pc, #356]	; (5142c0 <mesh_application_init+0x2a8>)
  51415a:	6160      	str	r0, [r4, #20]
  51415c:	4798      	blx	r3
  51415e:	6963      	ldr	r3, [r4, #20]
  514160:	46a8      	mov	r8, r5
  514162:	2b00      	cmp	r3, #0
  514164:	d03c      	beq.n	5141e0 <mesh_application_init+0x1c8>
  514166:	f10d 030e 	add.w	r3, sp, #14
  51416a:	4a56      	ldr	r2, [pc, #344]	; (5142c4 <mesh_application_init+0x2ac>)
  51416c:	f8ba 0000 	ldrh.w	r0, [sl]
  514170:	4d3f      	ldr	r5, [pc, #252]	; (514270 <mesh_application_init+0x258>)
  514172:	2106      	movs	r1, #6
  514174:	47a8      	blx	r5
  514176:	2806      	cmp	r0, #6
  514178:	d02a      	beq.n	5141d0 <mesh_application_init+0x1b8>
  51417a:	4b53      	ldr	r3, [pc, #332]	; (5142c8 <mesh_application_init+0x2b0>)
  51417c:	4798      	blx	r3
  51417e:	4953      	ldr	r1, [pc, #332]	; (5142cc <mesh_application_init+0x2b4>)
  514180:	4a53      	ldr	r2, [pc, #332]	; (5142d0 <mesh_application_init+0x2b8>)
  514182:	4b54      	ldr	r3, [pc, #336]	; (5142d4 <mesh_application_init+0x2bc>)
  514184:	2000      	movs	r0, #0
  514186:	4798      	blx	r3
  514188:	4601      	mov	r1, r0
  51418a:	b908      	cbnz	r0, 514190 <mesh_application_init+0x178>
  51418c:	4a52      	ldr	r2, [pc, #328]	; (5142d8 <mesh_application_init+0x2c0>)
  51418e:	47b0      	blx	r6
  514190:	4b52      	ldr	r3, [pc, #328]	; (5142dc <mesh_application_init+0x2c4>)
  514192:	4853      	ldr	r0, [pc, #332]	; (5142e0 <mesh_application_init+0x2c8>)
  514194:	2100      	movs	r1, #0
  514196:	4798      	blx	r3
  514198:	f8d8 3000 	ldr.w	r3, [r8]
  51419c:	b10b      	cbz	r3, 5141a2 <mesh_application_init+0x18a>
  51419e:	6960      	ldr	r0, [r4, #20]
  5141a0:	4798      	blx	r3
  5141a2:	4b50      	ldr	r3, [pc, #320]	; (5142e4 <mesh_application_init+0x2cc>)
  5141a4:	4798      	blx	r3
  5141a6:	47b8      	blx	r7
  5141a8:	2100      	movs	r1, #0
  5141aa:	4603      	mov	r3, r0
  5141ac:	4a4e      	ldr	r2, [pc, #312]	; (5142e8 <mesh_application_init+0x2d0>)
  5141ae:	4608      	mov	r0, r1
  5141b0:	47b0      	blx	r6
  5141b2:	b017      	add	sp, #92	; 0x5c
  5141b4:	e8bd 8ff0 	ldmia.w	sp!, {r4, r5, r6, r7, r8, r9, sl, fp, pc}
  5141b8:	a906      	add	r1, sp, #24
  5141ba:	2206      	movs	r2, #6
  5141bc:	a80a      	add	r0, sp, #40	; 0x28
  5141be:	4d4b      	ldr	r5, [pc, #300]	; (5142ec <mesh_application_init+0x2d4>)
  5141c0:	47a8      	blx	r5
  5141c2:	2206      	movs	r2, #6
  5141c4:	f10d 011e 	add.w	r1, sp, #30
  5141c8:	f10d 002e 	add.w	r0, sp, #46	; 0x2e
  5141cc:	47a8      	blx	r5
  5141ce:	e7a1      	b.n	514114 <mesh_application_init+0xfc>
  5141d0:	f8bd 300e 	ldrh.w	r3, [sp, #14]
  5141d4:	2b00      	cmp	r3, #0
  5141d6:	d1d0      	bne.n	51417a <mesh_application_init+0x162>
  5141d8:	69a3      	ldr	r3, [r4, #24]
  5141da:	f503 737a 	add.w	r3, r3, #1000	; 0x3e8
  5141de:	61a3      	str	r3, [r4, #24]
  5141e0:	f10d 030e 	add.w	r3, sp, #14
  5141e4:	4a37      	ldr	r2, [pc, #220]	; (5142c4 <mesh_application_init+0x2ac>)
  5141e6:	f8ba 0000 	ldrh.w	r0, [sl]
  5141ea:	4d41      	ldr	r5, [pc, #260]	; (5142f0 <mesh_application_init+0x2d8>)
  5141ec:	2106      	movs	r1, #6
  5141ee:	47a8      	blx	r5
  5141f0:	2806      	cmp	r0, #6
  5141f2:	d1c2      	bne.n	51417a <mesh_application_init+0x162>
  5141f4:	f8bd 500e 	ldrh.w	r5, [sp, #14]
  5141f8:	2d00      	cmp	r5, #0
  5141fa:	d1be      	bne.n	51417a <mesh_application_init+0x162>
  5141fc:	462a      	mov	r2, r5
  5141fe:	69a1      	ldr	r1, [r4, #24]
  514200:	f8df 9100 	ldr.w	r9, [pc, #256]	; 514304 <mesh_application_init+0x2ec>
  514204:	4628      	mov	r0, r5
  514206:	47c8      	blx	r9
  514208:	2800      	cmp	r0, #0
  51420a:	d0b6      	beq.n	51417a <mesh_application_init+0x162>
  51420c:	f8df b060 	ldr.w	fp, [pc, #96]	; 514270 <mesh_application_init+0x258>
  514210:	8ba3      	ldrh	r3, [r4, #28]
  514212:	429d      	cmp	r5, r3
  514214:	d2b3      	bcs.n	51417e <mesh_application_init+0x166>
  514216:	f8ba 0000 	ldrh.w	r0, [sl]
  51421a:	3801      	subs	r0, #1
  51421c:	1b40      	subs	r0, r0, r5
  51421e:	f10d 030e 	add.w	r3, sp, #14
  514222:	aa04      	add	r2, sp, #16
  514224:	2105      	movs	r1, #5
  514226:	b280      	uxth	r0, r0
  514228:	47d8      	blx	fp
  51422a:	2805      	cmp	r0, #5
  51422c:	d001      	beq.n	514232 <mesh_application_init+0x21a>
  51422e:	3501      	adds	r5, #1
  514230:	e7ee      	b.n	514210 <mesh_application_init+0x1f8>
  514232:	f8bd 300e 	ldrh.w	r3, [sp, #14]
  514236:	2b00      	cmp	r3, #0
  514238:	d1f9      	bne.n	51422e <mesh_application_init+0x216>
  51423a:	f89d 3014 	ldrb.w	r3, [sp, #20]
  51423e:	f89d 1013 	ldrb.w	r1, [sp, #19]
  514242:	f8bd 0010 	ldrh.w	r0, [sp, #16]
  514246:	041b      	lsls	r3, r3, #16
  514248:	eb03 2301 	add.w	r3, r3, r1, lsl #8
  51424c:	f89d 1012 	ldrb.w	r1, [sp, #18]
  514250:	0bc2      	lsrs	r2, r0, #15
  514252:	4419      	add	r1, r3
  514254:	f3c0 000e 	ubfx	r0, r0, #0, #15
  514258:	47c8      	blx	r9
  51425a:	2800      	cmp	r0, #0
  51425c:	d1e7      	bne.n	51422e <mesh_application_init+0x216>
  51425e:	e78c      	b.n	51417a <mesh_application_init+0x162>
  514260:	00006d41 	.word	0x00006d41
  514264:	00050dc1 	.word	0x00050dc1
  514268:	000d3259 	.word	0x000d3259
  51426c:	002102d8 	.word	0x002102d8
  514270:	0008a5b3 	.word	0x0008a5b3
  514274:	00527f61 	.word	0x00527f61
  514278:	00513019 	.word	0x00513019
  51427c:	00082ecb 	.word	0x00082ecb
  514280:	00513755 	.word	0x00513755
  514284:	00527f8c 	.word	0x00527f8c
  514288:	00527fc1 	.word	0x00527fc1
  51428c:	0052884f 	.word	0x0052884f
  514290:	000d2e27 	.word	0x000d2e27
  514294:	0021026c 	.word	0x0021026c
  514298:	002100c0 	.word	0x002100c0
  51429c:	00210078 	.word	0x00210078
  5142a0:	005137c1 	.word	0x005137c1
  5142a4:	00513a7d 	.word	0x00513a7d
  5142a8:	005132d9 	.word	0x005132d9
  5142ac:	005139e1 	.word	0x005139e1
  5142b0:	00513a19 	.word	0x00513a19
  5142b4:	00513db9 	.word	0x00513db9
  5142b8:	00513919 	.word	0x00513919
  5142bc:	005179f1 	.word	0x005179f1
  5142c0:	00513041 	.word	0x00513041
  5142c4:	002102f0 	.word	0x002102f0
  5142c8:	00513d65 	.word	0x00513d65
  5142cc:	005137a5 	.word	0x005137a5
  5142d0:	00512f8d 	.word	0x00512f8d
  5142d4:	0051541d 	.word	0x0051541d
  5142d8:	00527fd2 	.word	0x00527fd2
  5142dc:	0051371d 	.word	0x0051371d
  5142e0:	0020ff74 	.word	0x0020ff74
  5142e4:	00516971 	.word	0x00516971
  5142e8:	0052800b 	.word	0x0052800b
  5142ec:	00006d31 	.word	0x00006d31
  5142f0:	0008a597 	.word	0x0008a597
  5142f4:	000236cf 	.word	0x000236cf
  5142f8:	000d3903 	.word	0x000d3903
  5142fc:	000835f5 	.word	0x000835f5
  514300:	002106d0 	.word	0x002106d0
  514304:	00517545 	.word	0x00517545

00514308 <mesh_management_cback>:
  514308:	2813      	cmp	r0, #19
  51430a:	b538      	push	{r3, r4, r5, lr}
  51430c:	460d      	mov	r5, r1
  51430e:	d01d      	beq.n	51434c <mesh_management_cback+0x44>
  514310:	d802      	bhi.n	514318 <mesh_management_cback+0x10>
  514312:	b1f0      	cbz	r0, 514352 <mesh_management_cback+0x4a>
  514314:	2000      	movs	r0, #0
  514316:	e01b      	b.n	514350 <mesh_management_cback+0x48>
  514318:	2816      	cmp	r0, #22
  51431a:	d01d      	beq.n	514358 <mesh_management_cback+0x50>
  51431c:	2817      	cmp	r0, #23
  51431e:	d1f9      	bne.n	514314 <mesh_management_cback+0xc>
  514320:	780b      	ldrb	r3, [r1, #0]
  514322:	4a11      	ldr	r2, [pc, #68]	; (514368 <mesh_management_cback+0x60>)
  514324:	4c11      	ldr	r4, [pc, #68]	; (51436c <mesh_management_cback+0x64>)
  514326:	2100      	movs	r1, #0
  514328:	4608      	mov	r0, r1
  51432a:	47a0      	blx	r4
  51432c:	7829      	ldrb	r1, [r5, #0]
  51432e:	2900      	cmp	r1, #0
  514330:	d1f0      	bne.n	514314 <mesh_management_cback+0xc>
  514332:	4a0f      	ldr	r2, [pc, #60]	; (514370 <mesh_management_cback+0x68>)
  514334:	4608      	mov	r0, r1
  514336:	47a0      	blx	r4
  514338:	4b0e      	ldr	r3, [pc, #56]	; (514374 <mesh_management_cback+0x6c>)
  51433a:	4798      	blx	r3
  51433c:	2800      	cmp	r0, #0
  51433e:	d1e9      	bne.n	514314 <mesh_management_cback+0xc>
  514340:	2314      	movs	r3, #20
  514342:	4602      	mov	r2, r0
  514344:	4601      	mov	r1, r0
  514346:	4d0c      	ldr	r5, [pc, #48]	; (514378 <mesh_management_cback+0x70>)
  514348:	47a8      	blx	r5
  51434a:	e7e3      	b.n	514314 <mesh_management_cback+0xc>
  51434c:	f641 70ad 	movw	r0, #8109	; 0x1fad
  514350:	bd38      	pop	{r3, r4, r5, pc}
  514352:	4b0a      	ldr	r3, [pc, #40]	; (51437c <mesh_management_cback+0x74>)
  514354:	4798      	blx	r3
  514356:	e7dd      	b.n	514314 <mesh_management_cback+0xc>
  514358:	780b      	ldrb	r3, [r1, #0]
  51435a:	4a09      	ldr	r2, [pc, #36]	; (514380 <mesh_management_cback+0x78>)
  51435c:	4c03      	ldr	r4, [pc, #12]	; (51436c <mesh_management_cback+0x64>)
  51435e:	2100      	movs	r1, #0
  514360:	4608      	mov	r0, r1
  514362:	47a0      	blx	r4
  514364:	e7d6      	b.n	514314 <mesh_management_cback+0xc>
  514366:	bf00      	nop
  514368:	0052802d 	.word	0x0052802d
  51436c:	000d3259 	.word	0x000d3259
  514370:	0052804d 	.word	0x0052804d
  514374:	005132c9 	.word	0x005132c9
  514378:	005169ad 	.word	0x005169ad
  51437c:	00514019 	.word	0x00514019
  514380:	0052805a 	.word	0x0052805a

00514384 <mesh_app_node_is_provisioned>:
  514384:	4b01      	ldr	r3, [pc, #4]	; (51438c <mesh_app_node_is_provisioned+0x8>)
  514386:	6958      	ldr	r0, [r3, #20]
  514388:	4770      	bx	lr
  51438a:	bf00      	nop
  51438c:	002102d8 	.word	0x002102d8

00514390 <ECC_Add_>:
  514390:	e92d 4ff0 	stmdb	sp!, {r4, r5, r6, r7, r8, r9, sl, fp, lr}
  514394:	4e52      	ldr	r6, [pc, #328]	; (5144e0 <ECC_Add_+0x150>)
  514396:	b087      	sub	sp, #28
  514398:	4607      	mov	r7, r0
  51439a:	2020      	movs	r0, #32
  51439c:	461c      	mov	r4, r3
  51439e:	e9cd 1202 	strd	r1, r2, [sp, #8]
  5143a2:	47b0      	blx	r6
  5143a4:	4605      	mov	r5, r0
  5143a6:	2020      	movs	r0, #32
  5143a8:	47b0      	blx	r6
  5143aa:	4682      	mov	sl, r0
  5143ac:	2020      	movs	r0, #32
  5143ae:	47b0      	blx	r6
  5143b0:	4683      	mov	fp, r0
  5143b2:	2020      	movs	r0, #32
  5143b4:	47b0      	blx	r6
  5143b6:	9b02      	ldr	r3, [sp, #8]
  5143b8:	3340      	adds	r3, #64	; 0x40
  5143ba:	4606      	mov	r6, r0
  5143bc:	9301      	str	r3, [sp, #4]
  5143be:	4618      	mov	r0, r3
  5143c0:	4621      	mov	r1, r4
  5143c2:	4b48      	ldr	r3, [pc, #288]	; (5144e4 <ECC_Add_+0x154>)
  5143c4:	4798      	blx	r3
  5143c6:	b120      	cbz	r0, 5143d2 <ECC_Add_+0x42>
  5143c8:	9903      	ldr	r1, [sp, #12]
  5143ca:	4b47      	ldr	r3, [pc, #284]	; (5144e8 <ECC_Add_+0x158>)
  5143cc:	4638      	mov	r0, r7
  5143ce:	4798      	blx	r3
  5143d0:	e037      	b.n	514442 <ECC_Add_+0xb2>
  5143d2:	9b02      	ldr	r3, [sp, #8]
  5143d4:	9901      	ldr	r1, [sp, #4]
  5143d6:	f8df 9128 	ldr.w	r9, [pc, #296]	; 514500 <ECC_Add_+0x170>
  5143da:	f8df 8128 	ldr.w	r8, [pc, #296]	; 514504 <ECC_Add_+0x174>
  5143de:	3320      	adds	r3, #32
  5143e0:	9304      	str	r3, [sp, #16]
  5143e2:	f107 0340 	add.w	r3, r7, #64	; 0x40
  5143e6:	9305      	str	r3, [sp, #20]
  5143e8:	4622      	mov	r2, r4
  5143ea:	4628      	mov	r0, r5
  5143ec:	4b3f      	ldr	r3, [pc, #252]	; (5144ec <ECC_Add_+0x15c>)
  5143ee:	4798      	blx	r3
  5143f0:	4623      	mov	r3, r4
  5143f2:	462a      	mov	r2, r5
  5143f4:	9901      	ldr	r1, [sp, #4]
  5143f6:	4650      	mov	r0, sl
  5143f8:	47c8      	blx	r9
  5143fa:	4623      	mov	r3, r4
  5143fc:	462a      	mov	r2, r5
  5143fe:	9903      	ldr	r1, [sp, #12]
  514400:	4628      	mov	r0, r5
  514402:	47c8      	blx	r9
  514404:	9903      	ldr	r1, [sp, #12]
  514406:	4623      	mov	r3, r4
  514408:	4652      	mov	r2, sl
  51440a:	3120      	adds	r1, #32
  51440c:	4650      	mov	r0, sl
  51440e:	47c8      	blx	r9
  514410:	4623      	mov	r3, r4
  514412:	9a02      	ldr	r2, [sp, #8]
  514414:	4629      	mov	r1, r5
  514416:	4628      	mov	r0, r5
  514418:	47c0      	blx	r8
  51441a:	4623      	mov	r3, r4
  51441c:	4651      	mov	r1, sl
  51441e:	4650      	mov	r0, sl
  514420:	9a04      	ldr	r2, [sp, #16]
  514422:	47c0      	blx	r8
  514424:	4621      	mov	r1, r4
  514426:	4628      	mov	r0, r5
  514428:	4b2e      	ldr	r3, [pc, #184]	; (5144e4 <ECC_Add_+0x154>)
  51442a:	4798      	blx	r3
  51442c:	b1d0      	cbz	r0, 514464 <ECC_Add_+0xd4>
  51442e:	4621      	mov	r1, r4
  514430:	4650      	mov	r0, sl
  514432:	4b2c      	ldr	r3, [pc, #176]	; (5144e4 <ECC_Add_+0x154>)
  514434:	4798      	blx	r3
  514436:	b188      	cbz	r0, 51445c <ECC_Add_+0xcc>
  514438:	4622      	mov	r2, r4
  51443a:	9903      	ldr	r1, [sp, #12]
  51443c:	4b2c      	ldr	r3, [pc, #176]	; (5144f0 <ECC_Add_+0x160>)
  51443e:	4638      	mov	r0, r7
  514440:	4798      	blx	r3
  514442:	4c2c      	ldr	r4, [pc, #176]	; (5144f4 <ECC_Add_+0x164>)
  514444:	4628      	mov	r0, r5
  514446:	47a0      	blx	r4
  514448:	4650      	mov	r0, sl
  51444a:	47a0      	blx	r4
  51444c:	4658      	mov	r0, fp
  51444e:	47a0      	blx	r4
  514450:	4630      	mov	r0, r6
  514452:	4623      	mov	r3, r4
  514454:	b007      	add	sp, #28
  514456:	e8bd 4ff0 	ldmia.w	sp!, {r4, r5, r6, r7, r8, r9, sl, fp, lr}
  51445a:	4718      	bx	r3
  51445c:	4621      	mov	r1, r4
  51445e:	9805      	ldr	r0, [sp, #20]
  514460:	4b25      	ldr	r3, [pc, #148]	; (5144f8 <ECC_Add_+0x168>)
  514462:	e7b4      	b.n	5143ce <ECC_Add_+0x3e>
  514464:	4623      	mov	r3, r4
  514466:	462a      	mov	r2, r5
  514468:	9901      	ldr	r1, [sp, #4]
  51446a:	9805      	ldr	r0, [sp, #20]
  51446c:	47c8      	blx	r9
  51446e:	4622      	mov	r2, r4
  514470:	4629      	mov	r1, r5
  514472:	4630      	mov	r0, r6
  514474:	4b1d      	ldr	r3, [pc, #116]	; (5144ec <ECC_Add_+0x15c>)
  514476:	4798      	blx	r3
  514478:	4623      	mov	r3, r4
  51447a:	462a      	mov	r2, r5
  51447c:	4631      	mov	r1, r6
  51447e:	4658      	mov	r0, fp
  514480:	47c8      	blx	r9
  514482:	4623      	mov	r3, r4
  514484:	9a02      	ldr	r2, [sp, #8]
  514486:	4631      	mov	r1, r6
  514488:	4630      	mov	r0, r6
  51448a:	47c8      	blx	r9
  51448c:	4622      	mov	r2, r4
  51448e:	4631      	mov	r1, r6
  514490:	4628      	mov	r0, r5
  514492:	4b1a      	ldr	r3, [pc, #104]	; (5144fc <ECC_Add_+0x16c>)
  514494:	4798      	blx	r3
  514496:	4622      	mov	r2, r4
  514498:	4651      	mov	r1, sl
  51449a:	4638      	mov	r0, r7
  51449c:	4b13      	ldr	r3, [pc, #76]	; (5144ec <ECC_Add_+0x15c>)
  51449e:	4798      	blx	r3
  5144a0:	4623      	mov	r3, r4
  5144a2:	462a      	mov	r2, r5
  5144a4:	4639      	mov	r1, r7
  5144a6:	4638      	mov	r0, r7
  5144a8:	47c0      	blx	r8
  5144aa:	4623      	mov	r3, r4
  5144ac:	465a      	mov	r2, fp
  5144ae:	4639      	mov	r1, r7
  5144b0:	4638      	mov	r0, r7
  5144b2:	47c0      	blx	r8
  5144b4:	4623      	mov	r3, r4
  5144b6:	463a      	mov	r2, r7
  5144b8:	4631      	mov	r1, r6
  5144ba:	4630      	mov	r0, r6
  5144bc:	47c0      	blx	r8
  5144be:	4623      	mov	r3, r4
  5144c0:	4652      	mov	r2, sl
  5144c2:	4631      	mov	r1, r6
  5144c4:	4630      	mov	r0, r6
  5144c6:	47c8      	blx	r9
  5144c8:	4623      	mov	r3, r4
  5144ca:	9a04      	ldr	r2, [sp, #16]
  5144cc:	4659      	mov	r1, fp
  5144ce:	4658      	mov	r0, fp
  5144d0:	47c8      	blx	r9
  5144d2:	4623      	mov	r3, r4
  5144d4:	465a      	mov	r2, fp
  5144d6:	4631      	mov	r1, r6
  5144d8:	f107 0020 	add.w	r0, r7, #32
  5144dc:	47c0      	blx	r8
  5144de:	e7b0      	b.n	514442 <ECC_Add_+0xb2>
  5144e0:	00050d61 	.word	0x00050d61
  5144e4:	00067e2f 	.word	0x00067e2f
  5144e8:	000b6edf 	.word	0x000b6edf
  5144ec:	00067eff 	.word	0x00067eff
  5144f0:	000b6ee5 	.word	0x000b6ee5
  5144f4:	00050d65 	.word	0x00050d65
  5144f8:	00067dbd 	.word	0x00067dbd
  5144fc:	00067ec9 	.word	0x00067ec9
  514500:	00067eed 	.word	0x00067eed
  514504:	00067f23 	.word	0x00067f23

00514508 <MP_InvMod_>:
  514508:	e92d 4ff7 	stmdb	sp!, {r0, r1, r2, r4, r5, r6, r7, r8, r9, sl, fp, lr}
  51450c:	4c5f      	ldr	r4, [pc, #380]	; (51468c <MP_InvMod_+0x184>)
  51450e:	9000      	str	r0, [sp, #0]
  514510:	2020      	movs	r0, #32
  514512:	4688      	mov	r8, r1
  514514:	4691      	mov	r9, r2
  514516:	461d      	mov	r5, r3
  514518:	47a0      	blx	r4
  51451a:	4607      	mov	r7, r0
  51451c:	2024      	movs	r0, #36	; 0x24
  51451e:	47a0      	blx	r4
  514520:	4606      	mov	r6, r0
  514522:	2024      	movs	r0, #36	; 0x24
  514524:	47a0      	blx	r4
  514526:	4604      	mov	r4, r0
  514528:	b10f      	cbz	r7, 51452e <MP_InvMod_+0x26>
  51452a:	b106      	cbz	r6, 51452e <MP_InvMod_+0x26>
  51452c:	b938      	cbnz	r0, 51453e <MP_InvMod_+0x36>
  51452e:	2100      	movs	r1, #0
  514530:	4a57      	ldr	r2, [pc, #348]	; (514690 <MP_InvMod_+0x188>)
  514532:	4b58      	ldr	r3, [pc, #352]	; (514694 <MP_InvMod_+0x18c>)
  514534:	4608      	mov	r0, r1
  514536:	b003      	add	sp, #12
  514538:	e8bd 4ff0 	ldmia.w	sp!, {r4, r5, r6, r7, r8, r9, sl, fp, lr}
  51453c:	4718      	bx	r3
  51453e:	462a      	mov	r2, r5
  514540:	f8df a164 	ldr.w	sl, [pc, #356]	; 5146a8 <MP_InvMod_+0x1a0>
  514544:	f8df b164 	ldr.w	fp, [pc, #356]	; 5146ac <MP_InvMod_+0x1a4>
  514548:	4649      	mov	r1, r9
  51454a:	4638      	mov	r0, r7
  51454c:	47d0      	blx	sl
  51454e:	4629      	mov	r1, r5
  514550:	4630      	mov	r0, r6
  514552:	47d8      	blx	fp
  514554:	4629      	mov	r1, r5
  514556:	4620      	mov	r0, r4
  514558:	47d8      	blx	fp
  51455a:	2301      	movs	r3, #1
  51455c:	f8cd a004 	str.w	sl, [sp, #4]
  514560:	f8df a14c 	ldr.w	sl, [pc, #332]	; 5146b0 <MP_InvMod_+0x1a8>
  514564:	6033      	str	r3, [r6, #0]
  514566:	4629      	mov	r1, r5
  514568:	4640      	mov	r0, r8
  51456a:	4b4b      	ldr	r3, [pc, #300]	; (514698 <MP_InvMod_+0x190>)
  51456c:	4798      	blx	r3
  51456e:	2800      	cmp	r0, #0
  514570:	d16d      	bne.n	51464e <MP_InvMod_+0x146>
  514572:	f8df b140 	ldr.w	fp, [pc, #320]	; 5146b4 <MP_InvMod_+0x1ac>
  514576:	e00a      	b.n	51458e <MP_InvMod_+0x86>
  514578:	4640      	mov	r0, r8
  51457a:	462a      	mov	r2, r5
  51457c:	4641      	mov	r1, r8
  51457e:	47d0      	blx	sl
  514580:	6833      	ldr	r3, [r6, #0]
  514582:	07d8      	lsls	r0, r3, #31
  514584:	d429      	bmi.n	5145da <MP_InvMod_+0xd2>
  514586:	462a      	mov	r2, r5
  514588:	4631      	mov	r1, r6
  51458a:	4630      	mov	r0, r6
  51458c:	47d0      	blx	sl
  51458e:	f8d8 3000 	ldr.w	r3, [r8]
  514592:	07d9      	lsls	r1, r3, #31
  514594:	d5f0      	bpl.n	514578 <MP_InvMod_+0x70>
  514596:	f8df b11c 	ldr.w	fp, [pc, #284]	; 5146b4 <MP_InvMod_+0x1ac>
  51459a:	683b      	ldr	r3, [r7, #0]
  51459c:	07db      	lsls	r3, r3, #31
  51459e:	462a      	mov	r2, r5
  5145a0:	4639      	mov	r1, r7
  5145a2:	d52a      	bpl.n	5145fa <MP_InvMod_+0xf2>
  5145a4:	4b3d      	ldr	r3, [pc, #244]	; (51469c <MP_InvMod_+0x194>)
  5145a6:	f8df b0f8 	ldr.w	fp, [pc, #248]	; 5146a0 <MP_InvMod_+0x198>
  5145aa:	4640      	mov	r0, r8
  5145ac:	4798      	blx	r3
  5145ae:	2800      	cmp	r0, #0
  5145b0:	462b      	mov	r3, r5
  5145b2:	db3c      	blt.n	51462e <MP_InvMod_+0x126>
  5145b4:	463a      	mov	r2, r7
  5145b6:	4641      	mov	r1, r8
  5145b8:	4640      	mov	r0, r8
  5145ba:	47d8      	blx	fp
  5145bc:	462b      	mov	r3, r5
  5145be:	4622      	mov	r2, r4
  5145c0:	4631      	mov	r1, r6
  5145c2:	4630      	mov	r0, r6
  5145c4:	47d8      	blx	fp
  5145c6:	2800      	cmp	r0, #0
  5145c8:	d0cd      	beq.n	514566 <MP_InvMod_+0x5e>
  5145ca:	462b      	mov	r3, r5
  5145cc:	464a      	mov	r2, r9
  5145ce:	4631      	mov	r1, r6
  5145d0:	4630      	mov	r0, r6
  5145d2:	f8df b0e0 	ldr.w	fp, [pc, #224]	; 5146b4 <MP_InvMod_+0x1ac>
  5145d6:	47d8      	blx	fp
  5145d8:	e7c5      	b.n	514566 <MP_InvMod_+0x5e>
  5145da:	462b      	mov	r3, r5
  5145dc:	464a      	mov	r2, r9
  5145de:	4631      	mov	r1, r6
  5145e0:	4630      	mov	r0, r6
  5145e2:	47d8      	blx	fp
  5145e4:	462a      	mov	r2, r5
  5145e6:	6230      	str	r0, [r6, #32]
  5145e8:	4631      	mov	r1, r6
  5145ea:	4630      	mov	r0, r6
  5145ec:	47d0      	blx	sl
  5145ee:	e9d6 3207 	ldrd	r3, r2, [r6, #28]
  5145f2:	ea43 73c2 	orr.w	r3, r3, r2, lsl #31
  5145f6:	61f3      	str	r3, [r6, #28]
  5145f8:	e7c9      	b.n	51458e <MP_InvMod_+0x86>
  5145fa:	4638      	mov	r0, r7
  5145fc:	47d0      	blx	sl
  5145fe:	6823      	ldr	r3, [r4, #0]
  514600:	07da      	lsls	r2, r3, #31
  514602:	d404      	bmi.n	51460e <MP_InvMod_+0x106>
  514604:	462a      	mov	r2, r5
  514606:	4621      	mov	r1, r4
  514608:	4620      	mov	r0, r4
  51460a:	47d0      	blx	sl
  51460c:	e7c5      	b.n	51459a <MP_InvMod_+0x92>
  51460e:	462b      	mov	r3, r5
  514610:	464a      	mov	r2, r9
  514612:	4621      	mov	r1, r4
  514614:	4620      	mov	r0, r4
  514616:	47d8      	blx	fp
  514618:	462a      	mov	r2, r5
  51461a:	6220      	str	r0, [r4, #32]
  51461c:	4621      	mov	r1, r4
  51461e:	4620      	mov	r0, r4
  514620:	47d0      	blx	sl
  514622:	e9d4 3207 	ldrd	r3, r2, [r4, #28]
  514626:	ea43 73c2 	orr.w	r3, r3, r2, lsl #31
  51462a:	61e3      	str	r3, [r4, #28]
  51462c:	e7b5      	b.n	51459a <MP_InvMod_+0x92>
  51462e:	4642      	mov	r2, r8
  514630:	4639      	mov	r1, r7
  514632:	4638      	mov	r0, r7
  514634:	47d8      	blx	fp
  514636:	462b      	mov	r3, r5
  514638:	4632      	mov	r2, r6
  51463a:	4621      	mov	r1, r4
  51463c:	4620      	mov	r0, r4
  51463e:	47d8      	blx	fp
  514640:	2800      	cmp	r0, #0
  514642:	d090      	beq.n	514566 <MP_InvMod_+0x5e>
  514644:	462b      	mov	r3, r5
  514646:	464a      	mov	r2, r9
  514648:	4621      	mov	r1, r4
  51464a:	4620      	mov	r0, r4
  51464c:	e7c1      	b.n	5145d2 <MP_InvMod_+0xca>
  51464e:	462a      	mov	r2, r5
  514650:	4649      	mov	r1, r9
  514652:	4620      	mov	r0, r4
  514654:	4b11      	ldr	r3, [pc, #68]	; (51469c <MP_InvMod_+0x194>)
  514656:	4798      	blx	r3
  514658:	2800      	cmp	r0, #0
  51465a:	db10      	blt.n	51467e <MP_InvMod_+0x176>
  51465c:	462b      	mov	r3, r5
  51465e:	464a      	mov	r2, r9
  514660:	4621      	mov	r1, r4
  514662:	9800      	ldr	r0, [sp, #0]
  514664:	4d0e      	ldr	r5, [pc, #56]	; (5146a0 <MP_InvMod_+0x198>)
  514666:	47a8      	blx	r5
  514668:	4d0e      	ldr	r5, [pc, #56]	; (5146a4 <MP_InvMod_+0x19c>)
  51466a:	4638      	mov	r0, r7
  51466c:	47a8      	blx	r5
  51466e:	4630      	mov	r0, r6
  514670:	47a8      	blx	r5
  514672:	4620      	mov	r0, r4
  514674:	462b      	mov	r3, r5
  514676:	b003      	add	sp, #12
  514678:	e8bd 4ff0 	ldmia.w	sp!, {r4, r5, r6, r7, r8, r9, sl, fp, lr}
  51467c:	4718      	bx	r3
  51467e:	462a      	mov	r2, r5
  514680:	4621      	mov	r1, r4
  514682:	e9dd 0300 	ldrd	r0, r3, [sp]
  514686:	4798      	blx	r3
  514688:	e7ee      	b.n	514668 <MP_InvMod_+0x160>
  51468a:	bf00      	nop
  51468c:	00050d61 	.word	0x00050d61
  514690:	00528075 	.word	0x00528075
  514694:	000d3259 	.word	0x000d3259
  514698:	00067e2f 	.word	0x00067e2f
  51469c:	00067dfb 	.word	0x00067dfb
  5146a0:	00067eaf 	.word	0x00067eaf
  5146a4:	00050d65 	.word	0x00050d65
  5146a8:	00067dd7 	.word	0x00067dd7
  5146ac:	00067dbd 	.word	0x00067dbd
  5146b0:	00067edb 	.word	0x00067edb
  5146b4:	00067e95 	.word	0x00067e95

005146b8 <ecdsa_verify_>:
  5146b8:	e92d 4ff0 	stmdb	sp!, {r4, r5, r6, r7, r8, r9, sl, fp, lr}
  5146bc:	4f7a      	ldr	r7, [pc, #488]	; (5148a8 <ecdsa_verify_+0x1f0>)
  5146be:	b087      	sub	sp, #28
  5146c0:	4683      	mov	fp, r0
  5146c2:	2060      	movs	r0, #96	; 0x60
  5146c4:	e9cd 2104 	strd	r2, r1, [sp, #16]
  5146c8:	47b8      	blx	r7
  5146ca:	4605      	mov	r5, r0
  5146cc:	2060      	movs	r0, #96	; 0x60
  5146ce:	47b8      	blx	r7
  5146d0:	9002      	str	r0, [sp, #8]
  5146d2:	2020      	movs	r0, #32
  5146d4:	47b8      	blx	r7
  5146d6:	9001      	str	r0, [sp, #4]
  5146d8:	2020      	movs	r0, #32
  5146da:	47b8      	blx	r7
  5146dc:	4606      	mov	r6, r0
  5146de:	2020      	movs	r0, #32
  5146e0:	47b8      	blx	r7
  5146e2:	9003      	str	r0, [sp, #12]
  5146e4:	2020      	movs	r0, #32
  5146e6:	47b8      	blx	r7
  5146e8:	4681      	mov	r9, r0
  5146ea:	2020      	movs	r0, #32
  5146ec:	47b8      	blx	r7
  5146ee:	4680      	mov	r8, r0
  5146f0:	2020      	movs	r0, #32
  5146f2:	47b8      	blx	r7
  5146f4:	4604      	mov	r4, r0
  5146f6:	2020      	movs	r0, #32
  5146f8:	47b8      	blx	r7
  5146fa:	4682      	mov	sl, r0
  5146fc:	b17d      	cbz	r5, 51471e <ecdsa_verify_+0x66>
  5146fe:	9b02      	ldr	r3, [sp, #8]
  514700:	b16b      	cbz	r3, 51471e <ecdsa_verify_+0x66>
  514702:	9b01      	ldr	r3, [sp, #4]
  514704:	b15b      	cbz	r3, 51471e <ecdsa_verify_+0x66>
  514706:	b156      	cbz	r6, 51471e <ecdsa_verify_+0x66>
  514708:	9b03      	ldr	r3, [sp, #12]
  51470a:	b143      	cbz	r3, 51471e <ecdsa_verify_+0x66>
  51470c:	f1b9 0f00 	cmp.w	r9, #0
  514710:	d005      	beq.n	51471e <ecdsa_verify_+0x66>
  514712:	f1b8 0f00 	cmp.w	r8, #0
  514716:	d002      	beq.n	51471e <ecdsa_verify_+0x66>
  514718:	b10c      	cbz	r4, 51471e <ecdsa_verify_+0x66>
  51471a:	9905      	ldr	r1, [sp, #20]
  51471c:	b948      	cbnz	r0, 514732 <ecdsa_verify_+0x7a>
  51471e:	2100      	movs	r1, #0
  514720:	4a62      	ldr	r2, [pc, #392]	; (5148ac <ecdsa_verify_+0x1f4>)
  514722:	4b63      	ldr	r3, [pc, #396]	; (5148b0 <ecdsa_verify_+0x1f8>)
  514724:	4608      	mov	r0, r1
